gplink-2.2.37 (Jan 22 2024)
Listing File Generated: 2026-7-3  18:00:07
 
 
Address  Value    Disassembly              Source
-------  -----    -----------              ------
                                           ;--------------------------------------------------------
                                           ; external declarations
                                           ;--------------------------------------------------------
                                           	extern	_INDF0bits
                                           	extern	_INDF1bits
                                           	extern	_INDF2bits
                                           	extern	_HIBYTEbits
                                           	extern	_FSR0bits
                                           	extern	_FSR1bits
                                           	extern	_PCLbits
                                           	extern	_PFLAGbits
                                           	extern	_MCRbits
                                           	extern	_INDF3bits
                                           	extern	_INTEbits
                                           	extern	_INTFbits
                                           	extern	_DRVCRbits
                                           	extern	_P0KBCRbits
                                           	extern	_P1KBCRbits
                                           	extern	_P2KBCRbits
                                           	extern	_IOP0bits
                                           	extern	_OEP0bits
                                           	extern	_PUP0bits
                                           	extern	_PDP0bits
                                           	extern	_IOP1bits
                                           	extern	_OEP1bits
                                           	extern	_PUP1bits
                                           	extern	_PDP1bits
                                           	extern	_T0CRbits
                                           	extern	_T0CNTbits
                                           	extern	_T0LOADbits
                                           	extern	_T0DATAbits
                                           	extern	_T1CRbits
                                           	extern	_T1CNTbits
                                           	extern	_T1LOADbits
                                           	extern	_T1DATAbits
                                           	extern	_T2CRbits
                                           	extern	_T2CNTbits
                                           	extern	_T2LOADbits
                                           	extern	_T2DATAbits
                                           	extern	_T3CRbits
                                           	extern	_T3CNTbits
                                           	extern	_T3LOADbits
                                           	extern	_PWM0DRbits
                                           	extern	_PWM1DRbits
                                           	extern	_PWM2DRbits
                                           	extern	_PWMCR0bits
                                           	extern	_PWMCR1bits
                                           	extern	_OSCMRbits
                                           	extern	_LVDCRbits
                                           	extern	_ADCR0bits
                                           	extern	_ADCR1bits
                                           	extern	_ADCR2bits
                                           	extern	_OSADJCRbits
                                           	extern	_ADRHbits
                                           	extern	_ADRLbits
                                           	extern	_P0ADCRbits
                                           	extern	_P1ADCRbits
                                           	extern	_IOP2bits
                                           	extern	_OEP2bits
                                           	extern	_PUP2bits
                                           	extern	_PDP2bits
                                           	extern	_PMODbits
                                           	extern	_PWMCR3bits
                                           	extern	_PWMCR2bits
                                           	extern	_PFRCCRbits
                                           	extern	_PFRCCALbits
                                           	extern	_EECRbits
                                           	extern	_EEPRbits
                                           	extern	_EEARbits
                                           	extern	_EEDRHbits
                                           	extern	_EEDRLbits
                                           	extern	_DBGCRbits
                                           	extern	_DBGPRbits
                                           	extern	_HIRCCALbits
                                           	extern	_INDF0
                                           	extern	_INDF1
                                           	extern	_INDF2
                                           	extern	_HIBYTE
                                           	extern	_FSR0
                                           	extern	_FSR1
                                           	extern	_PCL
                                           	extern	_PFLAG
                                           	extern	_MCR
                                           	extern	_INDF3
                                           	extern	_INTE
                                           	extern	_INTF
                                           	extern	_DRVCR
                                           	extern	_P0KBCR
                                           	extern	_P1KBCR
                                           	extern	_P2KBCR
                                           	extern	_IOP0
                                           	extern	_OEP0
                                           	extern	_PUP0
                                           	extern	_PDP0
                                           	extern	_IOP1
                                           	extern	_OEP1
                                           	extern	_PUP1
                                           	extern	_PDP1
                                           	extern	_T0CR
                                           	extern	_T0CNT
                                           	extern	_T0LOAD
                                           	extern	_T0DATA
                                           	extern	_T1CR
                                           	extern	_T1CNT
                                           	extern	_T1LOAD
                                           	extern	_T1DATA
                                           	extern	_T2CR
                                           	extern	_T2CNT
                                           	extern	_T2LOAD
                                           	extern	_T2DATA
                                           	extern	_T3CR
                                           	extern	_T3CNT
                                           	extern	_T3LOAD
                                           	extern	_PWM0DR
                                           	extern	_PWM1DR
                                           	extern	_PWM2DR
                                           	extern	_PWMCR0
                                           	extern	_PWMCR1
                                           	extern	_OSCMR
                                           	extern	_LVDCR
                                           	extern	_ADCR0
                                           	extern	_ADCR1
                                           	extern	_ADCR2
                                           	extern	_OSADJCR
                                           	extern	_ADRH
                                           	extern	_ADRL
                                           	extern	_P0ADCR
                                           	extern	_P1ADCR
                                           	extern	_IOP2
                                           	extern	_OEP2
                                           	extern	_PUP2
                                           	extern	_PDP2
                                           	extern	_PMOD
                                           	extern	_PWMCR3
                                           	extern	_PWMCR2
                                           	extern	_PFRCCR
                                           	extern	_PFRCCAL
                                           	extern	_EECR
                                           	extern	_EEPR
                                           	extern	_EEAR
                                           	extern	_EEDRH
                                           	extern	_EEDRL
                                           	extern	_DBGCR
                                           	extern	_DBGPR
                                           	extern	_HIRCCAL
                                           ;--------------------------------------------------------
                                           ; global declarations
                                           ;--------------------------------------------------------
                                           	global	_Sys_Init
                                           	global	_IO_Init
                                           	global	_CLR_RAM
                                           	global	_delay_ms
                                           	global	_EEPROM_Write_Byte
                                           	global	_EEPROM_Read_Byte
                                           	global	_delay_10us
                                           	global	_led_mode_handle
                                           	global	_TIMER2_INT_Init
                                           	global	_key_handle
                                           	global	_main
                                           	global	_int_isr
                                           	global	_cur_led_mode
                                           	global	_abuf
                                           	global	_statusbuf
                                           	global	_flag1
                                           	global	_rf_data
                                           	global	_ir_data
                                           
                                           	global STK06
                                           	global STK05
                                           	global STK04
                                           	global STK03
                                           	global STK02
                                           	global STK01
                                           	global STK00
                                           
                                           sharebank udata_ovr 0x0000
                                           STK06	res 1
                                           STK05	res 1
                                           STK04	res 1
                                           STK03	res 1
                                           STK02	res 1
                                           STK01	res 1
                                           STK00	res 1
                                           
                                           ;--------------------------------------------------------
                                           ; global definitions
                                           ;--------------------------------------------------------
                                           UD_MC32F7361_0	udata
                                           _cur_led_mode	res	1
                                           
                                           UD_MC32F7361_1	udata
                                           _abuf	res	1
                                           
                                           UD_MC32F7361_2	udata
                                           _statusbuf	res	1
                                           
                                           UD_MC32F7361_3	udata
                                           _flag1	res	1
                                           
                                           UD_MC32F7361_4	udata
                                           _rf_data	res	1
                                           
                                           UD_MC32F7361_5	udata
                                           _ir_data	res	1
                                           
                                           ;--------------------------------------------------------
                                           ; absolute symbol definitions
                                           ;--------------------------------------------------------
                                           ;--------------------------------------------------------
                                           ; compiler-defined variables
                                           ;--------------------------------------------------------
                                           UDL_MC32F7361_0	udata
                                           r0x1017	res	1
                                           r0x1016	res	1
                                           r0x1018	res	1
                                           r0x1019	res	1
                                           r0x101A	res	1
                                           r0x101B	res	1
                                           r0x101C	res	1
                                           r0x101D	res	1
                                           r0x101E	res	1
                                           r0x101F	res	1
                                           r0x1020	res	1
                                           r0x1022	res	1
                                           r0x1021	res	1
                                           r0x1023	res	1
                                           r0x1024	res	1
                                           _key_handle_tmp_65536_35	res	1
                                           _int_isr_low_level_cnt_131073_57	res	1
                                           _int_isr___rf_data_131073_57	res	4
                                           _int_isr___flag_is_recved_data_131073_57	res	1
                                           _int_isr_flag_is_enable_recv_131073_57	res	1
                                           _int_isr_rf_bit_cnt_131073_57	res	1
                                           _int_isr_high_level_cnt_131073_57	res	1
                                           _int_isr_key_press_cnt_196609_76	res	2
                                           _int_isr_ir_level_cnt_196609_82	res	2
                                           _int_isr___ir_data_196609_82	res	4
                                           ;--------------------------------------------------------
                                           ; initialized data
                                           ;--------------------------------------------------------
                                           
                                           ;@Allocation info for local variables in function 'delay_ms'
                                           ;@delay_ms Sys_Init                  Allocated to registers ;size:2
                                           ;@delay_ms CLR_RAM                   Allocated to registers ;size:2
                                           ;@delay_ms IO_Init                   Allocated to registers ;size:2
                                           ;@delay_ms delay_ms                  Allocated to registers ;size:2
                                           ;@delay_ms INDF0bits                 Allocated to registers ;size:1
                                           ;@delay_ms INDF1bits                 Allocated to registers ;size:1
                                           ;@delay_ms INDF2bits                 Allocated to registers ;size:1
                                           ;@delay_ms HIBYTEbits                Allocated to registers ;size:1
                                           ;@delay_ms FSR0bits                  Allocated to registers ;size:1
                                           ;@delay_ms FSR1bits                  Allocated to registers ;size:1
                                           ;@delay_ms PCLbits                   Allocated to registers ;size:1
                                           ;@delay_ms PFLAGbits                 Allocated to registers ;size:1
                                           ;@delay_ms MCRbits                   Allocated to registers ;size:1
                                           ;@delay_ms INDF3bits                 Allocated to registers ;size:1
                                           ;@delay_ms INTEbits                  Allocated to registers ;size:1
                                           ;@delay_ms INTFbits                  Allocated to registers ;size:1
                                           ;@delay_ms DRVCRbits                 Allocated to registers ;size:1
                                           ;@delay_ms P0KBCRbits                Allocated to registers ;size:1
                                           ;@delay_ms P1KBCRbits                Allocated to registers ;size:1
                                           ;@delay_ms P2KBCRbits                Allocated to registers ;size:1
                                           ;@delay_ms IOP0bits                  Allocated to registers ;size:1
                                           ;@delay_ms OEP0bits                  Allocated to registers ;size:1
                                           ;@delay_ms PUP0bits                  Allocated to registers ;size:1
                                           ;@delay_ms PDP0bits                  Allocated to registers ;size:1
                                           ;@delay_ms IOP1bits                  Allocated to registers ;size:1
                                           ;@delay_ms OEP1bits                  Allocated to registers ;size:1
                                           ;@delay_ms PUP1bits                  Allocated to registers ;size:1
                                           ;@delay_ms PDP1bits                  Allocated to registers ;size:1
                                           ;@delay_ms T0CRbits                  Allocated to registers ;size:1
                                           ;@delay_ms T0CNTbits                 Allocated to registers ;size:1
                                           ;@delay_ms T0LOADbits                Allocated to registers ;size:1
                                           ;@delay_ms T0DATAbits                Allocated to registers ;size:1
                                           ;@delay_ms T1CRbits                  Allocated to registers ;size:1
                                           ;@delay_ms T1CNTbits                 Allocated to registers ;size:1
                                           ;@delay_ms T1LOADbits                Allocated to registers ;size:1
                                           ;@delay_ms T1DATAbits                Allocated to registers ;size:1
                                           ;@delay_ms T2CRbits                  Allocated to registers ;size:1
                                           ;@delay_ms T2CNTbits                 Allocated to registers ;size:1
                                           ;@delay_ms T2LOADbits                Allocated to registers ;size:1
                                           ;@delay_ms T2DATAbits                Allocated to registers ;size:1
                                           ;@delay_ms T3CRbits                  Allocated to registers ;size:1
                                           ;@delay_ms T3CNTbits                 Allocated to registers ;size:1
                                           ;@delay_ms T3LOADbits                Allocated to registers ;size:1
                                           ;@delay_ms PWM0DRbits                Allocated to registers ;size:1
                                           ;@delay_ms PWM1DRbits                Allocated to registers ;size:1
                                           ;@delay_ms PWM2DRbits                Allocated to registers ;size:1
                                           ;@delay_ms PWMCR0bits                Allocated to registers ;size:1
                                           ;@delay_ms PWMCR1bits                Allocated to registers ;size:1
                                           ;@delay_ms OSCMRbits                 Allocated to registers ;size:1
                                           ;@delay_ms LVDCRbits                 Allocated to registers ;size:1
                                           ;@delay_ms ADCR0bits                 Allocated to registers ;size:1
                                           ;@delay_ms ADCR1bits                 Allocated to registers ;size:1
                                           ;@delay_ms ADCR2bits                 Allocated to registers ;size:1
                                           ;@delay_ms OSADJCRbits               Allocated to registers ;size:1
                                           ;@delay_ms ADRHbits                  Allocated to registers ;size:1
                                           ;@delay_ms ADRLbits                  Allocated to registers ;size:1
                                           ;@delay_ms P0ADCRbits                Allocated to registers ;size:1
                                           ;@delay_ms P1ADCRbits                Allocated to registers ;size:1
                                           ;@delay_ms IOP2bits                  Allocated to registers ;size:1
                                           ;@delay_ms OEP2bits                  Allocated to registers ;size:1
                                           ;@delay_ms PUP2bits                  Allocated to registers ;size:1
                                           ;@delay_ms PDP2bits                  Allocated to registers ;size:1
                                           ;@delay_ms PMODbits                  Allocated to registers ;size:1
                                           ;@delay_ms PWMCR3bits                Allocated to registers ;size:1
                                           ;@delay_ms PWMCR2bits                Allocated to registers ;size:1
                                           ;@delay_ms PFRCCRbits                Allocated to registers ;size:1
                                           ;@delay_ms PFRCCALbits               Allocated to registers ;size:1
                                           ;@delay_ms EECRbits                  Allocated to registers ;size:1
                                           ;@delay_ms EEPRbits                  Allocated to registers ;size:1
                                           ;@delay_ms EEARbits                  Allocated to registers ;size:1
                                           ;@delay_ms EEDRHbits                 Allocated to registers ;size:1
                                           ;@delay_ms EEDRLbits                 Allocated to registers ;size:1
                                           ;@delay_ms DBGCRbits                 Allocated to registers ;size:1
                                           ;@delay_ms DBGPRbits                 Allocated to registers ;size:1
                                           ;@delay_ms HIRCCALbits               Allocated to registers ;size:1
                                           ;@delay_ms cur_led_mode              Allocated to registers ;size:1
                                           ;@delay_ms abuf                      Allocated to registers ;size:1
                                           ;@delay_ms statusbuf                 Allocated to registers ;size:1
                                           ;@delay_ms flag1                     Allocated to registers ;size:1
                                           ;@delay_ms rf_data                   Allocated to registers ;size:1
                                           ;@delay_ms ir_data                   Allocated to registers ;size:1
                                           ;@delay_ms xms                       Allocated to registers ;size:2
                                           ;@delay_ms i                         Allocated to registers r0x1018 r0x1019 ;size:2
                                           ;@delay_ms INDF0                     Allocated to registers ;size:1
                                           ;@delay_ms INDF1                     Allocated to registers ;size:1
                                           ;@delay_ms INDF2                     Allocated to registers ;size:1
                                           ;@delay_ms HIBYTE                    Allocated to registers ;size:1
                                           ;@delay_ms FSR0                      Allocated to registers ;size:1
                                           ;@delay_ms FSR1                      Allocated to registers ;size:1
                                           ;@delay_ms PCL                       Allocated to registers ;size:1
                                           ;@delay_ms PFLAG                     Allocated to registers ;size:1
                                           ;@delay_ms MCR                       Allocated to registers ;size:1
                                           ;@delay_ms INDF3                     Allocated to registers ;size:1
                                           ;@delay_ms INTE                      Allocated to registers ;size:1
                                           ;@delay_ms INTF                      Allocated to registers ;size:1
                                           ;@delay_ms DRVCR                     Allocated to registers ;size:1
                                           ;@delay_ms P0KBCR                    Allocated to registers ;size:1
                                           ;@delay_ms P1KBCR                    Allocated to registers ;size:1
                                           ;@delay_ms P2KBCR                    Allocated to registers ;size:1
                                           ;@delay_ms IOP0                      Allocated to registers ;size:1
                                           ;@delay_ms OEP0                      Allocated to registers ;size:1
                                           ;@delay_ms PUP0                      Allocated to registers ;size:1
                                           ;@delay_ms PDP0                      Allocated to registers ;size:1
                                           ;@delay_ms IOP1                      Allocated to registers ;size:1
                                           ;@delay_ms OEP1                      Allocated to registers ;size:1
                                           ;@delay_ms PUP1                      Allocated to registers ;size:1
                                           ;@delay_ms PDP1                      Allocated to registers ;size:1
                                           ;@delay_ms T0CR                      Allocated to registers ;size:1
                                           ;@delay_ms T0CNT                     Allocated to registers ;size:1
                                           ;@delay_ms T0LOAD                    Allocated to registers ;size:1
                                           ;@delay_ms T0DATA                    Allocated to registers ;size:1
                                           ;@delay_ms T1CR                      Allocated to registers ;size:1
                                           ;@delay_ms T1CNT                     Allocated to registers ;size:1
                                           ;@delay_ms T1LOAD                    Allocated to registers ;size:1
                                           ;@delay_ms T1DATA                    Allocated to registers ;size:1
                                           ;@delay_ms T2CR                      Allocated to registers ;size:1
                                           ;@delay_ms T2CNT                     Allocated to registers ;size:1
                                           ;@delay_ms T2LOAD                    Allocated to registers ;size:1
                                           ;@delay_ms T2DATA                    Allocated to registers ;size:1
                                           ;@delay_ms T3CR                      Allocated to registers ;size:1
                                           ;@delay_ms T3CNT                     Allocated to registers ;size:1
                                           ;@delay_ms T3LOAD                    Allocated to registers ;size:1
                                           ;@delay_ms PWM0DR                    Allocated to registers ;size:1
                                           ;@delay_ms PWM1DR                    Allocated to registers ;size:1
                                           ;@delay_ms PWM2DR                    Allocated to registers ;size:1
                                           ;@delay_ms PWMCR0                    Allocated to registers ;size:1
                                           ;@delay_ms PWMCR1                    Allocated to registers ;size:1
                                           ;@delay_ms OSCMR                     Allocated to registers ;size:1
                                           ;@delay_ms LVDCR                     Allocated to registers ;size:1
                                           ;@delay_ms ADCR0                     Allocated to registers ;size:1
                                           ;@delay_ms ADCR1                     Allocated to registers ;size:1
                                           ;@delay_ms ADCR2                     Allocated to registers ;size:1
                                           ;@delay_ms OSADJCR                   Allocated to registers ;size:1
                                           ;@delay_ms ADRH                      Allocated to registers ;size:1
                                           ;@delay_ms ADRL                      Allocated to registers ;size:1
                                           ;@delay_ms P0ADCR                    Allocated to registers ;size:1
                                           ;@delay_ms P1ADCR                    Allocated to registers ;size:1
                                           ;@delay_ms IOP2                      Allocated to registers ;size:1
                                           ;@delay_ms OEP2                      Allocated to registers ;size:1
                                           ;@delay_ms PUP2                      Allocated to registers ;size:1
                                           ;@delay_ms PDP2                      Allocated to registers ;size:1
                                           ;@delay_ms PMOD                      Allocated to registers ;size:1
                                           ;@delay_ms PWMCR3                    Allocated to registers ;size:1
                                           ;@delay_ms PWMCR2                    Allocated to registers ;size:1
                                           ;@delay_ms PFRCCR                    Allocated to registers ;size:1
                                           ;@delay_ms PFRCCAL                   Allocated to registers ;size:1
                                           ;@delay_ms EECR                      Allocated to registers ;size:1
                                           ;@delay_ms EEPR                      Allocated to registers ;size:1
                                           ;@delay_ms EEAR                      Allocated to registers ;size:1
                                           ;@delay_ms EEDRH                     Allocated to registers ;size:1
                                           ;@delay_ms EEDRL                     Allocated to registers ;size:1
                                           ;@delay_ms DBGCR                     Allocated to registers ;size:1
                                           ;@delay_ms DBGPR                     Allocated to registers ;size:1
                                           ;@delay_ms HIRCCAL                   Allocated to registers ;size:1
                                           ;@end Allocation info for local variables in function 'delay_ms';
                                           ;@Allocation info for local variables in function 'EEPROM_Write_Byte'
                                           ;@EEPROM_Write_Byte data                      Allocated to registers r0x1017 r0x1016 ;size:2
                                           ;@EEPROM_Write_Byte addr                      Allocated to registers ;size:1
                                           ;@end Allocation info for local variables in function 'EEPROM_Write_Byte';
                                           ;@Allocation info for local variables in function 'EEPROM_Read_Byte'
                                           ;@EEPROM_Read_Byte addr                      Allocated to registers ;size:1
                                           ;@EEPROM_Read_Byte EEDR                      Allocated to registers r0x1019 r0x1018 ;size:2
                                           ;@end Allocation info for local variables in function 'EEPROM_Read_Byte';
                                           ;@Allocation info for local variables in function 'delay_10us'
                                           ;@delay_10us x_10us                    Allocated to registers ;size:2
                                           ;@delay_10us i                         Allocated to registers r0x1018 ;size:1
                                           ;@end Allocation info for local variables in function 'delay_10us';
                                           ;@Allocation info for local variables in function 'led_mode_handle'
                                           ;@led_mode_handle period                    Allocated to registers r0x101C ;size:1
                                           ;@led_mode_handle i                         Allocated to registers r0x101D ;size:1
                                           ;@led_mode_handle j                         Allocated to registers r0x101E ;size:1
                                           ;@end Allocation info for local variables in function 'led_mode_handle';
                                           ;@Allocation info for local variables in function 'CLR_RAM'
                                           ;@end Allocation info for local variables in function 'CLR_RAM';
                                           ;@Allocation info for local variables in function 'IO_Init'
                                           ;@end Allocation info for local variables in function 'IO_Init';
                                           ;@Allocation info for local variables in function 'TIMER2_INT_Init'
                                           ;@end Allocation info for local variables in function 'TIMER2_INT_Init';
                                           ;@Allocation info for local variables in function 'Sys_Init'
                                           ;@end Allocation info for local variables in function 'Sys_Init';
                                           ;@Allocation info for local variables in function 'key_handle'
                                           ;@key_handle key_type                  Allocated to registers r0x1020 ;size:1
                                           ;@key_handle key                       Allocated to registers r0x101F ;size:1
                                           ;@key_handle tmp                       Allocated to registers ;size:1
                                           ;@end Allocation info for local variables in function 'key_handle';
                                           ;@Allocation info for local variables in function 'main'
                                           ;@main tmp                       Allocated to registers r0x1022 r0x1021 ;size:2
                                           ;@end Allocation info for local variables in function 'main';
                                           ;@Allocation info for local variables in function 'int_isr'
                                           ;@int_isr rf_bit_cnt                Allocated to registers ;size:1
                                           ;@int_isr __rf_data                 Allocated to registers ;size:4
                                           ;@int_isr flag_is_enable_recv       Allocated to registers ;size:1
                                           ;@int_isr __flag_is_recved_data     Allocated to registers ;size:1
                                           ;@int_isr low_level_cnt             Allocated to registers ;size:1
                                           ;@int_isr high_level_cnt            Allocated to registers ;size:1
                                           ;@int_isr key_press_cnt             Allocated to registers ;size:2
                                           ;@int_isr ir_level_cnt              Allocated to registers ;size:2
                                           ;@int_isr __ir_data                 Allocated to registers ;size:4
                                           ;@end Allocation info for local variables in function 'int_isr';
                                           
                                           ;--------------------------------------------------------
                                           ; overlayable items in internal ram 
                                           ;--------------------------------------------------------
                                           ;	udata_ovr
                                           ;--------------------------------------------------------
                                           ; reset vector 
                                           ;--------------------------------------------------------
                                           STARTUP	code 0x0000
000000   a155     goto    0x155            	goto	_main
                                           ;--------------------------------------------------------
                                           ; interrupt and initialization code
                                           ;--------------------------------------------------------
                                           c_interrupt	code	0x8
                                           __sdcc_interrupt
                                           ;***
                                           ;  pBlock Stats: dbName = I
                                           ;***
                                           ;entry:  _int_isr	;Function start
                                           ; 0 exit points
                                           ;2 compiler assigned registers:
                                           ;   r0x1023
                                           ;   r0x1024
                                           ;; Starting pCode block
                                           _int_isr	;Function start
                                           ; 0 exit points
                                           ;	.line	448; "MC32F7361.c"	__endasm;
                                           	;
000008   5629     movra   0x29             	movra	_abuf;
000009   4587     swapar  0x187            	swapar	_PFLAG;
00000a   562a     movra   0x2a             	movra	_statusbuf;
                                           	
                                           ;	.line	450; "MC32F7361.c"	if (T2IF & T2IE)
00000b   7614     clrr    0x14             	CLRR	r0x1023
00000c   fb8b     jbclr   0x18b, 0x5       	JBCLR	_INTFbits,5
00000d   6614     incr    0x14             	INCR	r0x1023
00000e   7615     clrr    0x15             	CLRR	r0x1024
00000f   fb8a     jbclr   0x18a, 0x5       	JBCLR	_INTEbits,5
000010   6615     incr    0x15             	INCR	r0x1024
000011   5815     movar   0x15             	MOVAR	r0x1024
000012   7a14     andra   0x14             	ANDRA	r0x1023
000013   3c00     movai   0                	MOVAI	0x00
000014   5c14     orar    0x14             	ORAR	r0x1023
000015   f587     jbclr   0x187, 0x2       	JBCLR	PFLAG,2
000016   a150     goto    0x150            	GOTO	_00494_DS_
                                           ;	.line	452; "MC32F7361.c"	T2IF = 0;
000017   db8b     bclr    0x18b, 0x5       	BCLR	_INTFbits,5
                                           ;	.line	467; "MC32F7361.c"	if (0 == RFIN_PIN)
000018   f794     jbclr   0x194, 0x3       	JBCLR	_IOP1bits,3
000019   a035     goto    0x35             	GOTO	_00446_DS_
                                           ;	.line	470; "MC32F7361.c"	low_level_cnt++;
00001a   6617     incr    0x17             	INCR	_int_isr_low_level_cnt_131073_57
                                           ;;unsigned compare: left < lit(0x1E=30), size=1
                                           ;	.line	475; "MC32F7361.c"	if (low_level_cnt >= 30 && rf_bit_cnt == 23) // ČçąűµÍµçĆ˝´óÓÚ3000usŁ¬˛˘ÇŇŇŃľ­˝ÓĘŐÁË23Î»ĘýľÝ
00001b   3c1e     movai   0x1e             	MOVAI	0x1e
00001c   4817     rsubar  0x17             	RSUBAR	_int_isr_low_level_cnt_131073_57
00001d   e187     jbset   0x187, 0         	JBSET	PFLAG,0
00001e   a0a2     goto    0xa2             	GOTO	_00447_DS_
                                           ;;genSkipc:3291: created from rifx:013B5EFC
00001f   581e     movar   0x1e             	MOVAR	_int_isr_rf_bit_cnt_131073_57
000020   3917     xorai   0x17             	XORAI	0x17
000021   e587     jbset   0x187, 0x2       	JBSET	PFLAG,2
000022   a0a2     goto    0xa2             	GOTO	_00447_DS_
                                           ;;unsigned compare: left < lit(0x6=6), size=1
                                           ;	.line	477; "MC32F7361.c"	if (high_level_cnt >= 6 && high_level_cnt < 20)
000023   3c06     movai   0x6              	MOVAI	0x06
000024   481f     rsubar  0x1f             	RSUBAR	_int_isr_high_level_cnt_131073_57
000025   e187     jbset   0x187, 0         	JBSET	PFLAG,0
000026   a02d     goto    0x2d             	GOTO	_00411_DS_
                                           ;;genSkipc:3291: created from rifx:013B5EFC
                                           ;;unsigned compare: left < lit(0x14=20), size=1
000027   3c14     movai   0x14             	MOVAI	0x14
000028   481f     rsubar  0x1f             	RSUBAR	_int_isr_high_level_cnt_131073_57
000029   f187     jbclr   0x187, 0         	JBCLR	PFLAG,0
00002a   a02d     goto    0x2d             	GOTO	_00411_DS_
                                           ;;genSkipc:3291: created from rifx:013B5EFC
                                           ;	.line	479; "MC32F7361.c"	__rf_data |= 0x01;
00002b   c018     bset    0x18, 0          	BSET	_int_isr___rf_data_131073_57,0
00002c   a031     goto    0x31             	GOTO	_00412_DS_
                                           ;;unsigned compare: left < lit(0x1=1), size=1
                                           _00411_DS_
                                           ;	.line	481; "MC32F7361.c"	else if (high_level_cnt >= 1 && high_level_cnt < 6)
00002d   3c01     movai   0x1              	MOVAI	0x01
00002e   481f     rsubar  0x1f             	RSUBAR	_int_isr_high_level_cnt_131073_57
00002f   e187     jbset   0x187, 0         	JBSET	PFLAG,0
000030   a031     goto    0x31             	GOTO	_00412_DS_
                                           ;;genSkipc:3291: created from rifx:013B5EFC
                                           _00412_DS_
                                           ;	.line	485; "MC32F7361.c"	__flag_is_recved_data = 1; // ˝ÓĘŐÍęłÉ±ęÖľÎ»ÖĂŇ»
000031   3c01     movai   0x1              	MOVAI	0x01
000032   561c     movra   0x1c             	MOVRA	_int_isr___flag_is_recved_data_131073_57
                                           ;	.line	486; "MC32F7361.c"	flag_is_enable_recv = 0;
000033   761d     clrr    0x1d             	CLRR	_int_isr_flag_is_enable_recv_131073_57
000034   a0a2     goto    0xa2             	GOTO	_00447_DS_
                                           _00446_DS_
                                           ;	.line	491; "MC32F7361.c"	if (low_level_cnt > 0)
000035   3c00     movai   0                	MOVAI	0x00
000036   5c17     orar    0x17             	ORAR	_int_isr_low_level_cnt_131073_57
000037   f587     jbclr   0x187, 0x2       	JBCLR	PFLAG,2
000038   a097     goto    0x97             	GOTO	_00443_DS_
                                           ;;swapping arguments (AOP_TYPEs 1/3)
                                           ;;unsigned compare: left >= lit(0x33=51), size=1
                                           ;	.line	494; "MC32F7361.c"	if (low_level_cnt > 50)
000039   3c33     movai   0x33             	MOVAI	0x33
00003a   4817     rsubar  0x17             	RSUBAR	_int_isr_low_level_cnt_131073_57
00003b   e187     jbset   0x187, 0         	JBSET	PFLAG,0
00003c   a045     goto    0x45             	GOTO	_00436_DS_
                                           ;;genSkipc:3291: created from rifx:013B5EFC
                                           ;	.line	497; "MC32F7361.c"	__rf_data = 0;  // Çĺłý˝ÓĘŐµÄĘýľÝÖˇ
00003d   7618     clrr    0x18             	CLRR	_int_isr___rf_data_131073_57
00003e   7619     clrr    0x19             	CLRR	(_int_isr___rf_data_131073_57 + 1)
00003f   761a     clrr    0x1a             	CLRR	(_int_isr___rf_data_131073_57 + 2)
000040   761b     clrr    0x1b             	CLRR	(_int_isr___rf_data_131073_57 + 3)
                                           ;	.line	498; "MC32F7361.c"	rf_bit_cnt = 0; // ÇĺłýÓĂŔ´ĽÇÂĽ˝ÓĘŐµÄĘýľÝÎ»Ęý
000041   761e     clrr    0x1e             	CLRR	_int_isr_rf_bit_cnt_131073_57
                                           ;	.line	500; "MC32F7361.c"	flag_is_enable_recv = 1;
000042   3c01     movai   0x1              	MOVAI	0x01
000043   561d     movra   0x1d             	MOVRA	_int_isr_flag_is_enable_recv_131073_57
000044   a08d     goto    0x8d             	GOTO	_00437_DS_
                                           _00436_DS_
                                           ;	.line	502; "MC32F7361.c"	else if (flag_is_enable_recv &&
000045   3c00     movai   0                	MOVAI	0x00
000046   5c1d     orar    0x1d             	ORAR	_int_isr_flag_is_enable_recv_131073_57
000047   f587     jbclr   0x187, 0x2       	JBCLR	PFLAG,2
000048   a066     goto    0x66             	GOTO	_00429_DS_
                                           ;;unsigned compare: left < lit(0x2=2), size=1
                                           ;	.line	503; "MC32F7361.c"	low_level_cnt >= 2 && low_level_cnt < 7 &&
000049   3c02     movai   0x2              	MOVAI	0x02
00004a   4817     rsubar  0x17             	RSUBAR	_int_isr_low_level_cnt_131073_57
00004b   e187     jbset   0x187, 0         	JBSET	PFLAG,0
00004c   a066     goto    0x66             	GOTO	_00429_DS_
                                           ;;genSkipc:3291: created from rifx:013B5EFC
                                           ;;unsigned compare: left < lit(0x7=7), size=1
00004d   3c07     movai   0x7              	MOVAI	0x07
00004e   4817     rsubar  0x17             	RSUBAR	_int_isr_low_level_cnt_131073_57
00004f   f187     jbclr   0x187, 0         	JBCLR	PFLAG,0
000050   a066     goto    0x66             	GOTO	_00429_DS_
                                           ;;genSkipc:3291: created from rifx:013B5EFC
                                           ;;unsigned compare: left < lit(0x6=6), size=1
                                           ;	.line	504; "MC32F7361.c"	high_level_cnt >= 6 && high_level_cnt < 20)
000051   3c06     movai   0x6              	MOVAI	0x06
000052   481f     rsubar  0x1f             	RSUBAR	_int_isr_high_level_cnt_131073_57
000053   e187     jbset   0x187, 0         	JBSET	PFLAG,0
000054   a066     goto    0x66             	GOTO	_00429_DS_
                                           ;;genSkipc:3291: created from rifx:013B5EFC
                                           ;;unsigned compare: left < lit(0x14=20), size=1
000055   3c14     movai   0x14             	MOVAI	0x14
000056   481f     rsubar  0x1f             	RSUBAR	_int_isr_high_level_cnt_131073_57
000057   f187     jbclr   0x187, 0         	JBCLR	PFLAG,0
000058   a066     goto    0x66             	GOTO	_00429_DS_
                                           ;;genSkipc:3291: created from rifx:013B5EFC
                                           ;	.line	507; "MC32F7361.c"	__rf_data |= 0x01;
000059   c018     bset    0x18, 0          	BSET	_int_isr___rf_data_131073_57,0
                                           ;	.line	508; "MC32F7361.c"	rf_bit_cnt++;
00005a   661e     incr    0x1e             	INCR	_int_isr_rf_bit_cnt_131073_57
                                           ;	.line	509; "MC32F7361.c"	if (rf_bit_cnt != 24)
00005b   581e     movar   0x1e             	MOVAR	_int_isr_rf_bit_cnt_131073_57
00005c   3918     xorai   0x18             	XORAI	0x18
00005d   e587     jbset   0x187, 0x2       	JBSET	PFLAG,2
00005e   a060     goto    0x60             	GOTO	_00677_DS_
00005f   a08d     goto    0x8d             	GOTO	_00437_DS_
                                           _00677_DS_
                                           ;	.line	511; "MC32F7361.c"	__rf_data <<= 1; // ÓĂÓÚ´ć·Ĺ˝ÓĘŐ24Î»ĘýľÝµÄ±äÁż×óŇĆŇ»Î»
000060   d187     bclr    0x187, 0         	BCLR	PFLAG,0
000061   5218     rlr     0x18             	RLR	_int_isr___rf_data_131073_57
000062   5219     rlr     0x19             	RLR	(_int_isr___rf_data_131073_57 + 1)
000063   521a     rlr     0x1a             	RLR	(_int_isr___rf_data_131073_57 + 2)
000064   521b     rlr     0x1b             	RLR	(_int_isr___rf_data_131073_57 + 3)
000065   a08d     goto    0x8d             	GOTO	_00437_DS_
                                           _00429_DS_
                                           ;	.line	514; "MC32F7361.c"	else if (flag_is_enable_recv &&
000066   3c00     movai   0                	MOVAI	0x00
000067   5c1d     orar    0x1d             	ORAR	_int_isr_flag_is_enable_recv_131073_57
000068   f587     jbclr   0x187, 0x2       	JBCLR	PFLAG,2
000069   a087     goto    0x87             	GOTO	_00422_DS_
                                           ;;unsigned compare: left < lit(0x7=7), size=1
                                           ;	.line	515; "MC32F7361.c"	low_level_cnt >= 7 && low_level_cnt < 20 &&
00006a   3c07     movai   0x7              	MOVAI	0x07
00006b   4817     rsubar  0x17             	RSUBAR	_int_isr_low_level_cnt_131073_57
00006c   e187     jbset   0x187, 0         	JBSET	PFLAG,0
00006d   a087     goto    0x87             	GOTO	_00422_DS_
                                           ;;genSkipc:3291: created from rifx:013B5EFC
                                           ;;unsigned compare: left < lit(0x14=20), size=1
00006e   3c14     movai   0x14             	MOVAI	0x14
00006f   4817     rsubar  0x17             	RSUBAR	_int_isr_low_level_cnt_131073_57
000070   f187     jbclr   0x187, 0         	JBCLR	PFLAG,0
000071   a087     goto    0x87             	GOTO	_00422_DS_
                                           ;;genSkipc:3291: created from rifx:013B5EFC
                                           ;;unsigned compare: left < lit(0x1=1), size=1
                                           ;	.line	516; "MC32F7361.c"	high_level_cnt >= 1 && high_level_cnt < 6)
000072   3c01     movai   0x1              	MOVAI	0x01
000073   481f     rsubar  0x1f             	RSUBAR	_int_isr_high_level_cnt_131073_57
000074   e187     jbset   0x187, 0         	JBSET	PFLAG,0
000075   a087     goto    0x87             	GOTO	_00422_DS_
                                           ;;genSkipc:3291: created from rifx:013B5EFC
                                           ;;unsigned compare: left < lit(0x6=6), size=1
000076   3c06     movai   0x6              	MOVAI	0x06
000077   481f     rsubar  0x1f             	RSUBAR	_int_isr_high_level_cnt_131073_57
000078   f187     jbclr   0x187, 0         	JBCLR	PFLAG,0
000079   a087     goto    0x87             	GOTO	_00422_DS_
                                           ;;genSkipc:3291: created from rifx:013B5EFC
                                           ;	.line	519; "MC32F7361.c"	__rf_data &= ~1;
00007a   d018     bclr    0x18, 0          	BCLR	_int_isr___rf_data_131073_57,0
                                           ;	.line	520; "MC32F7361.c"	rf_bit_cnt++;
00007b   661e     incr    0x1e             	INCR	_int_isr_rf_bit_cnt_131073_57
                                           ;	.line	521; "MC32F7361.c"	if (rf_bit_cnt != 24)
00007c   581e     movar   0x1e             	MOVAR	_int_isr_rf_bit_cnt_131073_57
00007d   3918     xorai   0x18             	XORAI	0x18
00007e   e587     jbset   0x187, 0x2       	JBSET	PFLAG,2
00007f   a081     goto    0x81             	GOTO	_00682_DS_
000080   a08d     goto    0x8d             	GOTO	_00437_DS_
                                           _00682_DS_
                                           ;	.line	523; "MC32F7361.c"	__rf_data <<= 1; // ÓĂÓÚ´ć·Ĺ˝ÓĘŐ24Î»ĘýľÝµÄ±äÁż×óŇĆŇ»Î»
000081   d187     bclr    0x187, 0         	BCLR	PFLAG,0
000082   5218     rlr     0x18             	RLR	_int_isr___rf_data_131073_57
000083   5219     rlr     0x19             	RLR	(_int_isr___rf_data_131073_57 + 1)
000084   521a     rlr     0x1a             	RLR	(_int_isr___rf_data_131073_57 + 2)
000085   521b     rlr     0x1b             	RLR	(_int_isr___rf_data_131073_57 + 3)
000086   a08d     goto    0x8d             	GOTO	_00437_DS_
                                           _00422_DS_
                                           ;	.line	529; "MC32F7361.c"	__rf_data = 0;
000087   7618     clrr    0x18             	CLRR	_int_isr___rf_data_131073_57
000088   7619     clrr    0x19             	CLRR	(_int_isr___rf_data_131073_57 + 1)
000089   761a     clrr    0x1a             	CLRR	(_int_isr___rf_data_131073_57 + 2)
00008a   761b     clrr    0x1b             	CLRR	(_int_isr___rf_data_131073_57 + 3)
                                           ;	.line	530; "MC32F7361.c"	rf_bit_cnt = 0;
00008b   761e     clrr    0x1e             	CLRR	_int_isr_rf_bit_cnt_131073_57
                                           ;	.line	531; "MC32F7361.c"	flag_is_enable_recv = 0;
00008c   761d     clrr    0x1d             	CLRR	_int_isr_flag_is_enable_recv_131073_57
                                           _00437_DS_
                                           ;	.line	534; "MC32F7361.c"	low_level_cnt = 0; // ÎŢÂŰĘÇ·ń˝ÓĘŐµ˝Ň»Î»ĘýľÝŁ¬Óöµ˝¸ßµçĆ˝Ę±Ł¬ĎČÇĺłýÖ®Ç°µÄĽĆĘýÖµ
00008d   7617     clrr    0x17             	CLRR	_int_isr_low_level_cnt_131073_57
                                           ;	.line	535; "MC32F7361.c"	high_level_cnt = 0;
00008e   761f     clrr    0x1f             	CLRR	_int_isr_high_level_cnt_131073_57
                                           ;	.line	537; "MC32F7361.c"	if (24 == rf_bit_cnt)
00008f   581e     movar   0x1e             	MOVAR	_int_isr_rf_bit_cnt_131073_57
000090   3918     xorai   0x18             	XORAI	0x18
000091   e587     jbset   0x187, 0x2       	JBSET	PFLAG,2
000092   a0a1     goto    0xa1             	GOTO	_00444_DS_
                                           ;	.line	540; "MC32F7361.c"	__flag_is_recved_data = 1; // ˝ÓĘŐÍęłÉ±ęÖľÎ»ÖĂŇ»
000093   3c01     movai   0x1              	MOVAI	0x01
000094   561c     movra   0x1c             	MOVRA	_int_isr___flag_is_recved_data_131073_57
                                           ;	.line	541; "MC32F7361.c"	flag_is_enable_recv = 0;
000095   761d     clrr    0x1d             	CLRR	_int_isr_flag_is_enable_recv_131073_57
000096   a0a1     goto    0xa1             	GOTO	_00444_DS_
                                           _00443_DS_
                                           ;	.line	548; "MC32F7361.c"	if (0 == flag_is_enable_recv)
000097   3c00     movai   0                	MOVAI	0x00
000098   5c1d     orar    0x1d             	ORAR	_int_isr_flag_is_enable_recv_131073_57
000099   e587     jbset   0x187, 0x2       	JBSET	PFLAG,2
00009a   a0a1     goto    0xa1             	GOTO	_00444_DS_
                                           ;	.line	550; "MC32F7361.c"	__rf_data = 0;
00009b   7618     clrr    0x18             	CLRR	_int_isr___rf_data_131073_57
00009c   7619     clrr    0x19             	CLRR	(_int_isr___rf_data_131073_57 + 1)
00009d   761a     clrr    0x1a             	CLRR	(_int_isr___rf_data_131073_57 + 2)
00009e   761b     clrr    0x1b             	CLRR	(_int_isr___rf_data_131073_57 + 3)
                                           ;	.line	551; "MC32F7361.c"	rf_bit_cnt = 0;
00009f   761e     clrr    0x1e             	CLRR	_int_isr_rf_bit_cnt_131073_57
                                           ;	.line	552; "MC32F7361.c"	flag_is_enable_recv = 0;
0000a0   761d     clrr    0x1d             	CLRR	_int_isr_flag_is_enable_recv_131073_57
                                           _00444_DS_
                                           ;	.line	557; "MC32F7361.c"	high_level_cnt++;
0000a1   661f     incr    0x1f             	INCR	_int_isr_high_level_cnt_131073_57
                                           _00447_DS_
                                           ;	.line	560; "MC32F7361.c"	if (__flag_is_recved_data) //
0000a2   3c00     movai   0                	MOVAI	0x00
0000a3   5c1c     orar    0x1c             	ORAR	_int_isr___flag_is_recved_data_131073_57
0000a4   f587     jbclr   0x187, 0x2       	JBCLR	PFLAG,2
0000a5   a0b4     goto    0xb4             	GOTO	_00452_DS_
                                           ;	.line	562; "MC32F7361.c"	rf_bit_cnt = 0;
0000a6   761e     clrr    0x1e             	CLRR	_int_isr_rf_bit_cnt_131073_57
                                           ;	.line	563; "MC32F7361.c"	__flag_is_recved_data = 0;
0000a7   761c     clrr    0x1c             	CLRR	_int_isr___flag_is_recved_data_131073_57
                                           ;	.line	564; "MC32F7361.c"	low_level_cnt = 0;
0000a8   7617     clrr    0x17             	CLRR	_int_isr_low_level_cnt_131073_57
                                           ;	.line	565; "MC32F7361.c"	high_level_cnt = 0;
0000a9   761f     clrr    0x1f             	CLRR	_int_isr_high_level_cnt_131073_57
                                           ;	.line	568; "MC32F7361.c"	if (0 == flag_is_recved_data) /* ČçąűÖ®Ç°Î´˝ÓĘŐµ˝ĘýľÝ »ňĘÇ ŇŃľ­´¦ŔíÍęÉĎŇ»´Î˝ÓĘŐµ˝µÄĘýľÝ */
0000aa   f02b     jbclr   0x2b, 0          	JBCLR	_flag1,0
0000ab   a0b0     goto    0xb0             	GOTO	_00449_DS_
                                           ;	.line	572; "MC32F7361.c"	rf_data = __rf_data;
0000ac   5818     movar   0x18             	MOVAR	_int_isr___rf_data_131073_57
0000ad   562c     movra   0x2c             	MOVRA	_rf_data
                                           ;	.line	573; "MC32F7361.c"	flag_is_recved_data = 1;
0000ae   c02b     bset    0x2b, 0          	BSET	_flag1,0
0000af   a0b4     goto    0xb4             	GOTO	_00452_DS_
                                           _00449_DS_
                                           ;	.line	577; "MC32F7361.c"	__rf_data = 0;
0000b0   7618     clrr    0x18             	CLRR	_int_isr___rf_data_131073_57
0000b1   7619     clrr    0x19             	CLRR	(_int_isr___rf_data_131073_57 + 1)
0000b2   761a     clrr    0x1a             	CLRR	(_int_isr___rf_data_131073_57 + 2)
0000b3   761b     clrr    0x1b             	CLRR	(_int_isr___rf_data_131073_57 + 3)
                                           _00452_DS_
                                           ;	.line	591; "MC32F7361.c"	if (0 == MECHANICAL_KEYING_PIN)
0000b4   fd94     jbclr   0x194, 0x6       	JBCLR	_IOP1bits,6
0000b5   a0ce     goto    0xce             	GOTO	_00462_DS_
                                           ;	.line	593; "MC32F7361.c"	if (key_press_cnt == 10000) // ł¤°´
0000b6   5820     movar   0x20             	MOVAR	_int_isr_key_press_cnt_196609_76
0000b7   3910     xorai   0x10             	XORAI	0x10
0000b8   e587     jbset   0x187, 0x2       	JBSET	PFLAG,2
0000b9   a0c2     goto    0xc2             	GOTO	_00456_DS_
0000ba   5821     movar   0x21             	MOVAR	(_int_isr_key_press_cnt_196609_76 + 1)
0000bb   3927     xorai   0x27             	XORAI	0x27
0000bc   e587     jbset   0x187, 0x2       	JBSET	PFLAG,2
0000bd   a0c2     goto    0xc2             	GOTO	_00456_DS_
                                           ;	.line	595; "MC32F7361.c"	rf_data = KEY_OFF;
0000be   3c03     movai   0x3              	MOVAI	0x03
0000bf   562c     movra   0x2c             	MOVRA	_rf_data
                                           ;	.line	596; "MC32F7361.c"	flag_is_recved_data = 1;
0000c0   c02b     bset    0x2b, 0          	BSET	_flag1,0
0000c1   a0e3     goto    0xe3             	GOTO	_00463_DS_
                                           ;;unsigned compare: left < lit(0x2710=10000), size=2
                                           _00456_DS_
                                           ;	.line	598; "MC32F7361.c"	else if (key_press_cnt < 10000)
0000c2   3c27     movai   0x27             	MOVAI	0x27
0000c3   4821     rsubar  0x21             	RSUBAR	(_int_isr_key_press_cnt_196609_76 + 1)
0000c4   e587     jbset   0x187, 0x2       	JBSET	PFLAG,2
0000c5   a0c8     goto    0xc8             	GOTO	_00683_DS_
0000c6   3c10     movai   0x10             	MOVAI	0x10
0000c7   4820     rsubar  0x20             	RSUBAR	_int_isr_key_press_cnt_196609_76
                                           _00683_DS_
0000c8   f187     jbclr   0x187, 0         	JBCLR	PFLAG,0
0000c9   a0e3     goto    0xe3             	GOTO	_00463_DS_
                                           ;;genSkipc:3291: created from rifx:013B5EFC
                                           ;	.line	600; "MC32F7361.c"	key_press_cnt++;
0000ca   6620     incr    0x20             	INCR	_int_isr_key_press_cnt_196609_76
0000cb   f587     jbclr   0x187, 0x2       	JBCLR	PFLAG,2
0000cc   6621     incr    0x21             	INCR	(_int_isr_key_press_cnt_196609_76 + 1)
0000cd   a0e3     goto    0xe3             	GOTO	_00463_DS_
                                           ;;unsigned compare: left < lit(0x64=100), size=2
                                           _00462_DS_
                                           ;	.line	605; "MC32F7361.c"	if (key_press_cnt >= 100 && key_press_cnt < 10000) // ¶Ě°´
0000ce   3c00     movai   0                	MOVAI	0x00
0000cf   4821     rsubar  0x21             	RSUBAR	(_int_isr_key_press_cnt_196609_76 + 1)
0000d0   e587     jbset   0x187, 0x2       	JBSET	PFLAG,2
0000d1   a0d4     goto    0xd4             	GOTO	_00684_DS_
0000d2   3c64     movai   0x64             	MOVAI	0x64
0000d3   4820     rsubar  0x20             	RSUBAR	_int_isr_key_press_cnt_196609_76
                                           _00684_DS_
0000d4   e187     jbset   0x187, 0         	JBSET	PFLAG,0
0000d5   a0e1     goto    0xe1             	GOTO	_00459_DS_
                                           ;;genSkipc:3291: created from rifx:013B5EFC
                                           ;;unsigned compare: left < lit(0x2710=10000), size=2
0000d6   3c27     movai   0x27             	MOVAI	0x27
0000d7   4821     rsubar  0x21             	RSUBAR	(_int_isr_key_press_cnt_196609_76 + 1)
0000d8   e587     jbset   0x187, 0x2       	JBSET	PFLAG,2
0000d9   a0dc     goto    0xdc             	GOTO	_00685_DS_
0000da   3c10     movai   0x10             	MOVAI	0x10
0000db   4820     rsubar  0x20             	RSUBAR	_int_isr_key_press_cnt_196609_76
                                           _00685_DS_
0000dc   f187     jbclr   0x187, 0         	JBCLR	PFLAG,0
0000dd   a0e1     goto    0xe1             	GOTO	_00459_DS_
                                           ;;genSkipc:3291: created from rifx:013B5EFC
                                           ;	.line	607; "MC32F7361.c"	rf_data = KEY_MECHANICAL_KEYING;
0000de   3c25     movai   0x25             	MOVAI	0x25
0000df   562c     movra   0x2c             	MOVRA	_rf_data
                                           ;	.line	608; "MC32F7361.c"	flag_is_recved_data = 1;
0000e0   c02b     bset    0x2b, 0          	BSET	_flag1,0
                                           _00459_DS_
                                           ;	.line	611; "MC32F7361.c"	key_press_cnt = 0;
0000e1   7620     clrr    0x20             	CLRR	_int_isr_key_press_cnt_196609_76
0000e2   7621     clrr    0x21             	CLRR	(_int_isr_key_press_cnt_196609_76 + 1)
                                           ;;swapping arguments (AOP_TYPEs 1/3)
                                           ;;unsigned compare: left >= lit(0x515=1301), size=2
                                           _00463_DS_
                                           ;	.line	625; "MC32F7361.c"	if (ir_level_cnt <= 1300)
0000e3   3c05     movai   0x5              	MOVAI	0x05
0000e4   4823     rsubar  0x23             	RSUBAR	(_int_isr_ir_level_cnt_196609_82 + 1)
0000e5   e587     jbset   0x187, 0x2       	JBSET	PFLAG,2
0000e6   a0e9     goto    0xe9             	GOTO	_00686_DS_
0000e7   3c15     movai   0x15             	MOVAI	0x15
0000e8   4822     rsubar  0x22             	RSUBAR	_int_isr_ir_level_cnt_196609_82
                                           _00686_DS_
0000e9   f187     jbclr   0x187, 0         	JBCLR	PFLAG,0
0000ea   a0ee     goto    0xee             	GOTO	_00465_DS_
                                           ;;genSkipc:3291: created from rifx:013B5EFC
                                           ;	.line	626; "MC32F7361.c"	ir_level_cnt++;
0000eb   6622     incr    0x22             	INCR	_int_isr_ir_level_cnt_196609_82
0000ec   f587     jbclr   0x187, 0x2       	JBCLR	PFLAG,2
0000ed   6623     incr    0x23             	INCR	(_int_isr_ir_level_cnt_196609_82 + 1)
                                           _00465_DS_
                                           ;	.line	641; "MC32F7361.c"	if (IR_RECV_PIN)
0000ee   e794     jbset   0x194, 0x3       	JBSET	_IOP1bits,3
0000ef   a10b     goto    0x10b            	GOTO	_00491_DS_
                                           ;	.line	643; "MC32F7361.c"	last_level_in_ir_pin = 1; // ±íĘľ˝ÓĘŐµ˝µÄĘÇ¸ßµçĆ˝
0000f0   c42b     bset    0x2b, 0x2        	BSET	_flag1,2
                                           ;;swapping arguments (AOP_TYPEs 1/3)
                                           ;;unsigned compare: left >= lit(0x4B1=1201), size=2
                                           ;	.line	646; "MC32F7361.c"	if (ir_level_cnt > 1200) // ł¬Ę±Ę±Ľä(120000us,120ms)
0000f1   3c04     movai   0x4              	MOVAI	0x04
0000f2   4823     rsubar  0x23             	RSUBAR	(_int_isr_ir_level_cnt_196609_82 + 1)
0000f3   e587     jbset   0x187, 0x2       	JBSET	PFLAG,2
0000f4   a0f7     goto    0xf7             	GOTO	_00687_DS_
0000f5   3cb1     movai   0xb1             	MOVAI	0xb1
0000f6   4822     rsubar  0x22             	RSUBAR	_int_isr_ir_level_cnt_196609_82
                                           _00687_DS_
0000f7   e187     jbset   0x187, 0         	JBSET	PFLAG,0
0000f8   a150     goto    0x150            	GOTO	_00494_DS_
                                           ;;genSkipc:3291: created from rifx:013B5EFC
                                           ;	.line	649; "MC32F7361.c"	if (__ir_data != 0) // ł¬Ę±Ł¬ÇŇ˝ÓĘŐµ˝ĘýľÝ(ĎÖÔÚĘÇÔÚÖĐ¶Ď·ţÎńşŻĘýÖĐ°Ń__ir_data×Ô¶ŻÇĺÁă)
0000f9   5824     movar   0x24             	MOVAR	_int_isr___ir_data_196609_82
0000fa   5c25     orar    0x25             	ORAR	(_int_isr___ir_data_196609_82 + 1)
0000fb   5c26     orar    0x26             	ORAR	(_int_isr___ir_data_196609_82 + 2)
0000fc   5c27     orar    0x27             	ORAR	(_int_isr___ir_data_196609_82 + 3)
0000fd   f587     jbclr   0x187, 0x2       	JBCLR	PFLAG,2
0000fe   a150     goto    0x150            	GOTO	_00494_DS_
                                           ;	.line	658; "MC32F7361.c"	if (0 == flag_is_recved_data)
0000ff   f02b     jbclr   0x2b, 0          	JBCLR	_flag1,0
000100   a150     goto    0x150            	GOTO	_00494_DS_
                                           ;	.line	664; "MC32F7361.c"	ir_data = ~__ir_data;
000101   5824     movar   0x24             	MOVAR	_int_isr___ir_data_196609_82
000102   5614     movra   0x14             	MOVRA	r0x1023
000103   7014     comar   0x14             	COMAR	r0x1023
000104   562d     movra   0x2d             	MOVRA	_ir_data
                                           ;	.line	665; "MC32F7361.c"	__ir_data = 0;
000105   7624     clrr    0x24             	CLRR	_int_isr___ir_data_196609_82
000106   7625     clrr    0x25             	CLRR	(_int_isr___ir_data_196609_82 + 1)
000107   7626     clrr    0x26             	CLRR	(_int_isr___ir_data_196609_82 + 2)
000108   7627     clrr    0x27             	CLRR	(_int_isr___ir_data_196609_82 + 3)
                                           ;	.line	666; "MC32F7361.c"	flag_is_recved_data = 1;
000109   c02b     bset    0x2b, 0          	BSET	_flag1,0
00010a   a150     goto    0x150            	GOTO	_00494_DS_
                                           _00491_DS_
                                           ;	.line	677; "MC32F7361.c"	if (last_level_in_ir_pin)
00010b   e42b     jbset   0x2b, 0x2        	JBSET	_flag1,2
00010c   a14f     goto    0x14f            	GOTO	_00489_DS_
                                           ;;swapping arguments (AOP_TYPEs 1/3)
                                           ;;unsigned compare: left >= lit(0x9=9), size=2
                                           ;	.line	680; "MC32F7361.c"	if (ir_level_cnt <= 8) // ĐˇÓÚ800usŁ¬ËµĂ÷˝ÓĘŐµ˝ÎŢĐ§µÄĘýľÝŁ¬ÖŘĐÂ˝ÓĘŐ
00010d   3c00     movai   0                	MOVAI	0x00
00010e   4823     rsubar  0x23             	RSUBAR	(_int_isr_ir_level_cnt_196609_82 + 1)
00010f   e587     jbset   0x187, 0x2       	JBSET	PFLAG,2
000110   a113     goto    0x113            	GOTO	_00688_DS_
000111   3c09     movai   0x9              	MOVAI	0x09
000112   4822     rsubar  0x22             	RSUBAR	_int_isr_ir_level_cnt_196609_82
                                           _00688_DS_
000113   e187     jbset   0x187, 0         	JBSET	PFLAG,0
000114   a14d     goto    0x14d            	GOTO	_00487_DS_
                                           ;;genSkipc:3291: created from rifx:013B5EFC
                                           ;;swapping arguments (AOP_TYPEs 1/3)
                                           ;;unsigned compare: left >= lit(0x13=19), size=2
                                           ;	.line	683; "MC32F7361.c"	else if (ir_level_cnt <= 18) // ĐˇÓÚ1800us,ËµĂ÷˝ÓĘŐµ˝ÁËÂßĽ­0
000115   3c00     movai   0                	MOVAI	0x00
000116   4823     rsubar  0x23             	RSUBAR	(_int_isr_ir_level_cnt_196609_82 + 1)
000117   e587     jbset   0x187, 0x2       	JBSET	PFLAG,2
000118   a11b     goto    0x11b            	GOTO	_00689_DS_
000119   3c13     movai   0x13             	MOVAI	0x13
00011a   4822     rsubar  0x22             	RSUBAR	_int_isr_ir_level_cnt_196609_82
                                           _00689_DS_
00011b   f187     jbclr   0x187, 0         	JBCLR	PFLAG,0
00011c   a123     goto    0x123            	GOTO	_00483_DS_
                                           ;;genSkipc:3291: created from rifx:013B5EFC
                                           ;	.line	685; "MC32F7361.c"	__ir_data <<= 1;
00011d   d187     bclr    0x187, 0         	BCLR	PFLAG,0
00011e   5224     rlr     0x24             	RLR	_int_isr___ir_data_196609_82
00011f   5225     rlr     0x25             	RLR	(_int_isr___ir_data_196609_82 + 1)
000120   5226     rlr     0x26             	RLR	(_int_isr___ir_data_196609_82 + 2)
000121   5227     rlr     0x27             	RLR	(_int_isr___ir_data_196609_82 + 3)
000122   a14d     goto    0x14d            	GOTO	_00487_DS_
                                           ;;swapping arguments (AOP_TYPEs 1/3)
                                           ;;unsigned compare: left >= lit(0x1B=27), size=2
                                           _00483_DS_
                                           ;	.line	691; "MC32F7361.c"	else if (ir_level_cnt <= 26) // ĐˇÓÚ2600us,ËµĂ÷˝ÓĘŐµ˝ÁËÂßĽ­1
000123   3c00     movai   0                	MOVAI	0x00
000124   4823     rsubar  0x23             	RSUBAR	(_int_isr_ir_level_cnt_196609_82 + 1)
000125   e587     jbset   0x187, 0x2       	JBSET	PFLAG,2
000126   a129     goto    0x129            	GOTO	_00690_DS_
000127   3c1b     movai   0x1b             	MOVAI	0x1b
000128   4822     rsubar  0x22             	RSUBAR	_int_isr_ir_level_cnt_196609_82
                                           _00690_DS_
000129   f187     jbclr   0x187, 0         	JBCLR	PFLAG,0
00012a   a132     goto    0x132            	GOTO	_00480_DS_
                                           ;;genSkipc:3291: created from rifx:013B5EFC
                                           ;	.line	693; "MC32F7361.c"	__ir_data <<= 1;
00012b   d187     bclr    0x187, 0         	BCLR	PFLAG,0
00012c   5224     rlr     0x24             	RLR	_int_isr___ir_data_196609_82
00012d   5225     rlr     0x25             	RLR	(_int_isr___ir_data_196609_82 + 1)
00012e   5226     rlr     0x26             	RLR	(_int_isr___ir_data_196609_82 + 2)
00012f   5227     rlr     0x27             	RLR	(_int_isr___ir_data_196609_82 + 3)
                                           ;	.line	694; "MC32F7361.c"	__ir_data |= 0x01;
000130   c024     bset    0x24, 0          	BSET	_int_isr___ir_data_196609_82,0
000131   a14d     goto    0x14d            	GOTO	_00487_DS_
                                           ;;swapping arguments (AOP_TYPEs 1/3)
                                           ;;unsigned compare: left >= lit(0x97=151), size=2
                                           _00480_DS_
                                           ;	.line	699; "MC32F7361.c"	else if (ir_level_cnt <= 150) // ĐˇÓÚ15000us,ËµĂ÷˝ÓĘŐµ˝ÁË¸ńĘ˝Í·
000132   3c00     movai   0                	MOVAI	0x00
000133   4823     rsubar  0x23             	RSUBAR	(_int_isr_ir_level_cnt_196609_82 + 1)
000134   e587     jbset   0x187, 0x2       	JBSET	PFLAG,2
000135   a138     goto    0x138            	GOTO	_00691_DS_
000136   3c97     movai   0x97             	MOVAI	0x97
000137   4822     rsubar  0x22             	RSUBAR	_int_isr_ir_level_cnt_196609_82
                                           _00691_DS_
000138   e187     jbset   0x187, 0         	JBSET	PFLAG,0
000139   a14d     goto    0x14d            	GOTO	_00487_DS_
                                           ;;genSkipc:3291: created from rifx:013B5EFC
                                           ;;swapping arguments (AOP_TYPEs 1/3)
                                           ;;unsigned compare: left >= lit(0x1A5=421), size=2
                                           ;	.line	702; "MC32F7361.c"	else if (ir_level_cnt <= 420) // ĐˇÓÚ42ms,ËµĂ÷˝ÓĘŐÍęŇ»´ÎÍęŐűµÄşěÍâĐĹşĹ
00013a   3c01     movai   0x1              	MOVAI	0x01
00013b   4823     rsubar  0x23             	RSUBAR	(_int_isr_ir_level_cnt_196609_82 + 1)
00013c   e587     jbset   0x187, 0x2       	JBSET	PFLAG,2
00013d   a140     goto    0x140            	GOTO	_00692_DS_
00013e   3ca5     movai   0xa5             	MOVAI	0xa5
00013f   4822     rsubar  0x22             	RSUBAR	_int_isr_ir_level_cnt_196609_82
                                           _00692_DS_
000140   f187     jbclr   0x187, 0         	JBCLR	PFLAG,0
000141   a14d     goto    0x14d            	GOTO	_00487_DS_
                                           ;;genSkipc:3291: created from rifx:013B5EFC
                                           ;	.line	713; "MC32F7361.c"	if (0 == flag_is_recved_data)
000142   f02b     jbclr   0x2b, 0          	JBCLR	_flag1,0
000143   a14d     goto    0x14d            	GOTO	_00487_DS_
                                           ;	.line	718; "MC32F7361.c"	ir_data = ~__ir_data;
000144   5824     movar   0x24             	MOVAR	_int_isr___ir_data_196609_82
000145   5614     movra   0x14             	MOVRA	r0x1023
000146   7014     comar   0x14             	COMAR	r0x1023
000147   562d     movra   0x2d             	MOVRA	_ir_data
                                           ;	.line	719; "MC32F7361.c"	__ir_data = 0;
000148   7624     clrr    0x24             	CLRR	_int_isr___ir_data_196609_82
000149   7625     clrr    0x25             	CLRR	(_int_isr___ir_data_196609_82 + 1)
00014a   7626     clrr    0x26             	CLRR	(_int_isr___ir_data_196609_82 + 2)
00014b   7627     clrr    0x27             	CLRR	(_int_isr___ir_data_196609_82 + 3)
                                           ;	.line	720; "MC32F7361.c"	flag_is_recved_data = 1;
00014c   c02b     bset    0x2b, 0          	BSET	_flag1,0
                                           _00487_DS_
                                           ;	.line	736; "MC32F7361.c"	ir_level_cnt = 0;
00014d   7622     clrr    0x22             	CLRR	_int_isr_ir_level_cnt_196609_82
00014e   7623     clrr    0x23             	CLRR	(_int_isr_ir_level_cnt_196609_82 + 1)
                                           _00489_DS_
                                           ;	.line	739; "MC32F7361.c"	last_level_in_ir_pin = 0; // ±íĘľ˝ÓĘŐµ˝µÄĘÇµÍµçĆ˝
00014f   d42b     bclr    0x2b, 0x2        	BCLR	_flag1,2
                                           _00494_DS_
                                           ;	.line	751; "MC32F7361.c"	__endasm;
                                           	;
000150   442a     swapar  0x2a             	swapar	_statusbuf;
000151   5787     movra   0x187            	movra	_PFLAG;
000152   4629     swapr   0x29             	swapr	_abuf;
000153   4429     swapar  0x29             	swapar	_abuf;
                                           	
                                           END_OF_INTERRUPT
                                           ;	.line	752; "MC32F7361.c"	}
000154   000d     retie                    	RETIE	
                                           
                                           ;--------------------------------------------------------
                                           ; code
                                           ;--------------------------------------------------------
                                           code_MC32F7361	code
                                           ;***
                                           ;  pBlock Stats: dbName = M
                                           ;***
                                           ;entry:  _main	;Function start
                                           ; 2 exit points
                                           ;has an exit
                                           ;functions called:
                                           ;   _Sys_Init
                                           ;   _delay_ms
                                           ;   _EEPROM_Read_Byte
                                           ;   _EEPROM_Read_Byte
                                           ;   _EEPROM_Write_Byte
                                           ;   _delay_ms
                                           ;   _led_mode_handle
                                           ;   _key_handle
                                           ;   _key_handle
                                           ;   _Sys_Init
                                           ;   _delay_ms
                                           ;   _EEPROM_Read_Byte
                                           ;   _EEPROM_Read_Byte
                                           ;   _EEPROM_Write_Byte
                                           ;   _delay_ms
                                           ;   _led_mode_handle
                                           ;   _key_handle
                                           ;   _key_handle
                                           ;4 compiler assigned registers:
                                           ;   STK00
                                           ;   r0x1021
                                           ;   r0x1022
                                           ;   STK01
                                           ;; Starting pCode block
                                           _main	;Function start
                                           ; 2 exit points
                                           ;	.line	382; "MC32F7361.c"	Sys_Init();
000155   82ba     call    0x2ba            	CALL	_Sys_Init
                                           ;	.line	383; "MC32F7361.c"	delay_ms(1);
000156   3c01     movai   0x1              	MOVAI	0x01
000157   5606     movra   0x6              	MOVRA	STK00
000158   3c00     movai   0                	MOVAI	0x00
000159   8365     call    0x365            	CALL	_delay_ms
                                           ;	.line	388; "MC32F7361.c"	cur_led_mode = EEPROM_Read_Byte(1);
00015a   3c01     movai   0x1              	MOVAI	0x01
00015b   8337     call    0x337            	CALL	_EEPROM_Read_Byte
00015c   5613     movra   0x13             	MOVRA	r0x1021
00015d   5806     movar   0x6              	MOVAR	STK00
00015e   5628     movra   0x28             	MOVRA	_cur_led_mode
00015f   5612     movra   0x12             	MOVRA	r0x1022
                                           ;;101	MOVAR	r0x1022
                                           ;	.line	389; "MC32F7361.c"	tmp = EEPROM_Read_Byte(2);
000160   3c02     movai   0x2              	MOVAI	0x02
000161   8337     call    0x337            	CALL	_EEPROM_Read_Byte
000162   5613     movra   0x13             	MOVRA	r0x1021
000163   5806     movar   0x6              	MOVAR	STK00
000164   5612     movra   0x12             	MOVRA	r0x1022
                                           ;	.line	391; "MC32F7361.c"	if (tmp != (u16)0xA5A6) // Čçąű˛»ĘÇ 0xA5A6Ł¬ËµĂ÷ĘÇµÚŇ»´ÎÉĎµç
000165   5812     movar   0x12             	MOVAR	r0x1022
000166   39a6     xorai   0xa6             	XORAI	0xa6
000167   e587     jbset   0x187, 0x2       	JBSET	PFLAG,2
000168   a16e     goto    0x16e            	GOTO	_00405_DS_
000169   5813     movar   0x13             	MOVAR	r0x1021
00016a   39a5     xorai   0xa5             	XORAI	0xa5
00016b   e587     jbset   0x187, 0x2       	JBSET	PFLAG,2
00016c   a16e     goto    0x16e            	GOTO	_00405_DS_
00016d   a176     goto    0x176            	GOTO	_00373_DS_
                                           _00405_DS_
                                           ;	.line	393; "MC32F7361.c"	cur_led_mode = LED_MODE_R2_C1;     // ÉčÖĂµÚŇ»´ÎÉĎµçµÄÄ¬ČĎÄŁĘ˝
00016e   3c01     movai   0x1              	MOVAI	0x01
00016f   5628     movra   0x28             	MOVRA	_cur_led_mode
                                           ;	.line	394; "MC32F7361.c"	EEPROM_Write_Byte(2, (u16)0xA5A6); // µÚŇ»´ÎÉĎµçŁ¬Đ´Čë0xA5A6
000170   3ca6     movai   0xa6             	MOVAI	0xa6
000171   5605     movra   0x5              	MOVRA	STK01
000172   3ca5     movai   0xa5             	MOVAI	0xa5
000173   5606     movra   0x6              	MOVRA	STK00
000174   3c02     movai   0x2              	MOVAI	0x02
000175   834e     call    0x34e            	CALL	_EEPROM_Write_Byte
                                           _00373_DS_
                                           ;	.line	398; "MC32F7361.c"	LED_CTL_PIN = 1;
000176   c990     bset    0x190, 0x4       	BSET	_IOP0bits,4
                                           ;	.line	399; "MC32F7361.c"	delay_ms(15); // ˛»ÄÜĐˇÓÚ5msŁ¬·ńÔň´Ó»ú»á˝ÓĘŐ˛»µ˝
000177   3c0f     movai   0xf              	MOVAI	0x0f
000178   5606     movra   0x6              	MOVRA	STK00
000179   3c00     movai   0                	MOVAI	0x00
00017a   8365     call    0x365            	CALL	_delay_ms
                                           ;	.line	400; "MC32F7361.c"	led_mode_handle(cur_led_mode);
00017b   5828     movar   0x28             	MOVAR	_cur_led_mode
00017c   82f0     call    0x2f0            	CALL	_led_mode_handle
                                           ;	.line	401; "MC32F7361.c"	flag_is_dev_open = 1;
00017d   c22b     bset    0x2b, 0x1        	BSET	_flag1,1
                                           _00381_DS_
                                           ;	.line	415; "MC32F7361.c"	if (flag_is_recved_data)
00017e   e02b     jbset   0x2b, 0          	JBSET	_flag1,0
00017f   a17e     goto    0x17e            	GOTO	_00381_DS_
                                           ;	.line	417; "MC32F7361.c"	if (rf_data != KEY_NONE)
000180   3c00     movai   0                	MOVAI	0x00
000181   5c2c     orar    0x2c             	ORAR	_rf_data
000182   f587     jbclr   0x187, 0x2       	JBCLR	PFLAG,2
000183   a189     goto    0x189            	GOTO	_00375_DS_
                                           ;	.line	419; "MC32F7361.c"	key_handle(rf_data, 0);
000184   3c00     movai   0                	MOVAI	0x00
000185   5606     movra   0x6              	MOVRA	STK00
000186   582c     movar   0x2c             	MOVAR	_rf_data
000187   8195     call    0x195            	CALL	_key_handle
                                           ;	.line	420; "MC32F7361.c"	rf_data = 0;
000188   762c     clrr    0x2c             	CLRR	_rf_data
                                           _00375_DS_
                                           ;	.line	423; "MC32F7361.c"	if (ir_data != IR_KEY_NONE)
000189   3c00     movai   0                	MOVAI	0x00
00018a   5c2d     orar    0x2d             	ORAR	_ir_data
00018b   f587     jbclr   0x187, 0x2       	JBCLR	PFLAG,2
00018c   a192     goto    0x192            	GOTO	_00377_DS_
                                           ;	.line	425; "MC32F7361.c"	key_handle(ir_data, 1);
00018d   3c01     movai   0x1              	MOVAI	0x01
00018e   5606     movra   0x6              	MOVRA	STK00
00018f   582d     movar   0x2d             	MOVAR	_ir_data
000190   8195     call    0x195            	CALL	_key_handle
                                           ;	.line	426; "MC32F7361.c"	ir_data = 0;
000191   762d     clrr    0x2d             	CLRR	_ir_data
                                           _00377_DS_
                                           ;	.line	431; "MC32F7361.c"	flag_is_recved_data = 0;
000192   d02b     bclr    0x2b, 0          	BCLR	_flag1,0
000193   a17e     goto    0x17e            	GOTO	_00381_DS_
                                           ;	.line	435; "MC32F7361.c"	}
000194   000c     return                   	RETURN	
                                           ; exit point of _main
                                           
                                           ;***
                                           ;  pBlock Stats: dbName = C
                                           ;***
                                           ;entry:  _key_handle	;Function start
                                           ; 2 exit points
                                           ;has an exit
                                           ;functions called:
                                           ;   _delay_ms
                                           ;   _delay_ms
                                           ;   _led_mode_handle
                                           ;   _delay_ms
                                           ;   _delay_ms
                                           ;   _led_mode_handle
                                           ;3 compiler assigned registers:
                                           ;   r0x101F
                                           ;   STK00
                                           ;   r0x1020
                                           ;; Starting pCode block
                                           _key_handle	;Function start
                                           ; 2 exit points
                                           ;	.line	183; "MC32F7361.c"	void key_handle(u8 key, u8 key_type)
000195   5610     movra   0x10             	MOVRA	r0x101F
000196   5806     movar   0x6              	MOVAR	STK00
000197   5611     movra   0x11             	MOVRA	r0x1020
                                           ;	.line	185; "MC32F7361.c"	volatile u8 tmp = cur_led_mode;
000198   5828     movar   0x28             	MOVAR	_cur_led_mode
000199   5616     movra   0x16             	MOVRA	_key_handle_tmp_65536_35
                                           ;	.line	187; "MC32F7361.c"	if (1 == key_type) // ČçąűĘÇşěÍâ°´ĽüŁ¬ĐčŇŞ˝«ĽüÖµ×Ş»»łÉ433ŇŁżŘĆ÷¶ÔÓ¦ą¦ÄÜµÄĽüÖµ
00019a   5811     movar   0x11             	MOVAR	r0x1020
00019b   3901     xorai   0x1              	XORAI	0x01
00019c   e587     jbset   0x187, 0x2       	JBSET	PFLAG,2
00019d   a202     goto    0x202            	GOTO	_00181_DS_
                                           ;	.line	189; "MC32F7361.c"	switch (key)
00019e   5810     movar   0x10             	MOVAR	r0x101F
00019f   3910     xorai   0x10             	XORAI	0x10
0001a0   e587     jbset   0x187, 0x2       	JBSET	PFLAG,2
0001a1   a1a3     goto    0x1a3            	GOTO	_00343_DS_
0001a2   a1ea     goto    0x1ea            	GOTO	_00171_DS_
                                           _00343_DS_
0001a3   5810     movar   0x10             	MOVAR	r0x101F
0001a4   3922     xorai   0x22             	XORAI	0x22
0001a5   e587     jbset   0x187, 0x2       	JBSET	PFLAG,2
0001a6   a1a8     goto    0x1a8            	GOTO	_00344_DS_
0001a7   a1de     goto    0x1de            	GOTO	_00167_DS_
                                           _00344_DS_
0001a8   5810     movar   0x10             	MOVAR	r0x101F
0001a9   3930     xorai   0x30             	XORAI	0x30
0001aa   e587     jbset   0x187, 0x2       	JBSET	PFLAG,2
0001ab   a1ad     goto    0x1ad            	GOTO	_00345_DS_
0001ac   a1e7     goto    0x1e7            	GOTO	_00170_DS_
                                           _00345_DS_
0001ad   5810     movar   0x10             	MOVAR	r0x101F
0001ae   395a     xorai   0x5a             	XORAI	0x5a
0001af   e587     jbset   0x187, 0x2       	JBSET	PFLAG,2
0001b0   a1b2     goto    0x1b2            	GOTO	_00346_DS_
0001b1   a1fc     goto    0x1fc            	GOTO	_00177_DS_
                                           _00346_DS_
0001b2   5810     movar   0x10             	MOVAR	r0x101F
0001b3   3968     xorai   0x68             	XORAI	0x68
0001b4   e587     jbset   0x187, 0x2       	JBSET	PFLAG,2
0001b5   a1b7     goto    0x1b7            	GOTO	_00347_DS_
0001b6   a1e4     goto    0x1e4            	GOTO	_00169_DS_
                                           _00347_DS_
0001b7   5810     movar   0x10             	MOVAR	r0x101F
0001b8   397a     xorai   0x7a             	XORAI	0x7a
0001b9   e587     jbset   0x187, 0x2       	JBSET	PFLAG,2
0001ba   a1bc     goto    0x1bc            	GOTO	_00348_DS_
0001bb   a1f9     goto    0x1f9            	GOTO	_00176_DS_
                                           _00348_DS_
0001bc   5810     movar   0x10             	MOVAR	r0x101F
0001bd   3990     xorai   0x90             	XORAI	0x90
0001be   e587     jbset   0x187, 0x2       	JBSET	PFLAG,2
0001bf   a1c1     goto    0x1c1            	GOTO	_00349_DS_
0001c0   a1f3     goto    0x1f3            	GOTO	_00174_DS_
                                           _00349_DS_
0001c1   5810     movar   0x10             	MOVAR	r0x101F
0001c2   39a2     xorai   0xa2             	XORAI	0xa2
0001c3   e587     jbset   0x187, 0x2       	JBSET	PFLAG,2
0001c4   a1c6     goto    0x1c6            	GOTO	_00350_DS_
0001c5   a1db     goto    0x1db            	GOTO	_00166_DS_
                                           _00350_DS_
0001c6   5810     movar   0x10             	MOVAR	r0x101F
0001c7   39b0     xorai   0xb0             	XORAI	0xb0
0001c8   e587     jbset   0x187, 0x2       	JBSET	PFLAG,2
0001c9   a1cb     goto    0x1cb            	GOTO	_00351_DS_
0001ca   a1f6     goto    0x1f6            	GOTO	_00175_DS_
                                           _00351_DS_
0001cb   5810     movar   0x10             	MOVAR	r0x101F
0001cc   39c2     xorai   0xc2             	XORAI	0xc2
0001cd   e587     jbset   0x187, 0x2       	JBSET	PFLAG,2
0001ce   a1d0     goto    0x1d0            	GOTO	_00352_DS_
0001cf   a1f0     goto    0x1f0            	GOTO	_00173_DS_
                                           _00352_DS_
0001d0   5810     movar   0x10             	MOVAR	r0x101F
0001d1   39e0     xorai   0xe0             	XORAI	0xe0
0001d2   e587     jbset   0x187, 0x2       	JBSET	PFLAG,2
0001d3   a1d5     goto    0x1d5            	GOTO	_00353_DS_
0001d4   a1e1     goto    0x1e1            	GOTO	_00168_DS_
                                           _00353_DS_
0001d5   5810     movar   0x10             	MOVAR	r0x101F
0001d6   39e2     xorai   0xe2             	XORAI	0xe2
0001d7   e587     jbset   0x187, 0x2       	JBSET	PFLAG,2
0001d8   a1da     goto    0x1da            	GOTO	_00354_DS_
0001d9   a1ed     goto    0x1ed            	GOTO	_00172_DS_
                                           _00354_DS_
0001da   a1ff     goto    0x1ff            	GOTO	_00178_DS_
                                           _00166_DS_
                                           ;	.line	192; "MC32F7361.c"	key = KEY_ON;
0001db   3c01     movai   0x1              	MOVAI	0x01
0001dc   5610     movra   0x10             	MOVRA	r0x101F
                                           ;	.line	193; "MC32F7361.c"	break;
0001dd   a202     goto    0x202            	GOTO	_00181_DS_
                                           _00167_DS_
                                           ;	.line	196; "MC32F7361.c"	key = KEY_R2_C1;
0001de   3c04     movai   0x4              	MOVAI	0x04
0001df   5610     movra   0x10             	MOVRA	r0x101F
                                           ;	.line	197; "MC32F7361.c"	break;
0001e0   a202     goto    0x202            	GOTO	_00181_DS_
                                           _00168_DS_
                                           ;	.line	200; "MC32F7361.c"	key = KEY_R3_C1;
0001e1   3c07     movai   0x7              	MOVAI	0x07
0001e2   5610     movra   0x10             	MOVRA	r0x101F
                                           ;	.line	201; "MC32F7361.c"	break;
0001e3   a202     goto    0x202            	GOTO	_00181_DS_
                                           _00169_DS_
                                           ;	.line	204; "MC32F7361.c"	key = KEY_R4_C1;
0001e4   3c0a     movai   0xa              	MOVAI	0x0a
0001e5   5610     movra   0x10             	MOVRA	r0x101F
                                           ;	.line	205; "MC32F7361.c"	break;
0001e6   a202     goto    0x202            	GOTO	_00181_DS_
                                           _00170_DS_
                                           ;	.line	208; "MC32F7361.c"	key = KEY_R5_C1;
0001e7   3c0d     movai   0xd              	MOVAI	0x0d
0001e8   5610     movra   0x10             	MOVRA	r0x101F
                                           ;	.line	209; "MC32F7361.c"	break;
0001e9   a202     goto    0x202            	GOTO	_00181_DS_
                                           _00171_DS_
                                           ;	.line	212; "MC32F7361.c"	key = KEY_R6_C1_FLASH;
0001ea   3c10     movai   0x10             	MOVAI	0x10
0001eb   5610     movra   0x10             	MOVRA	r0x101F
                                           ;	.line	213; "MC32F7361.c"	break;
0001ec   a202     goto    0x202            	GOTO	_00181_DS_
                                           _00172_DS_
                                           ;	.line	216; "MC32F7361.c"	key = KEY_OFF;
0001ed   3c03     movai   0x3              	MOVAI	0x03
0001ee   5610     movra   0x10             	MOVRA	r0x101F
                                           ;	.line	217; "MC32F7361.c"	break;
0001ef   a202     goto    0x202            	GOTO	_00181_DS_
                                           _00173_DS_
                                           ;	.line	220; "MC32F7361.c"	key = KEY_R2_C2;
0001f0   3c06     movai   0x6              	MOVAI	0x06
0001f1   5610     movra   0x10             	MOVRA	r0x101F
                                           ;	.line	221; "MC32F7361.c"	break;
0001f2   a202     goto    0x202            	GOTO	_00181_DS_
                                           _00174_DS_
                                           ;	.line	224; "MC32F7361.c"	key = KEY_R3_C2;
0001f3   3c09     movai   0x9              	MOVAI	0x09
0001f4   5610     movra   0x10             	MOVRA	r0x101F
                                           ;	.line	225; "MC32F7361.c"	break;
0001f5   a202     goto    0x202            	GOTO	_00181_DS_
                                           _00175_DS_
                                           ;	.line	228; "MC32F7361.c"	key = KEY_R4_C2;
0001f6   3c0c     movai   0xc              	MOVAI	0x0c
0001f7   5610     movra   0x10             	MOVRA	r0x101F
                                           ;	.line	229; "MC32F7361.c"	break;
0001f8   a202     goto    0x202            	GOTO	_00181_DS_
                                           _00176_DS_
                                           ;	.line	232; "MC32F7361.c"	key = KEY_R5_C2_MULTI_FLASH;
0001f9   3c0f     movai   0xf              	MOVAI	0x0f
0001fa   5610     movra   0x10             	MOVRA	r0x101F
                                           ;	.line	233; "MC32F7361.c"	break;
0001fb   a202     goto    0x202            	GOTO	_00181_DS_
                                           _00177_DS_
                                           ;	.line	236; "MC32F7361.c"	key = KEY_R6_C2_FADE;
0001fc   3c12     movai   0x12             	MOVAI	0x12
0001fd   5610     movra   0x10             	MOVRA	r0x101F
                                           ;	.line	237; "MC32F7361.c"	break;
0001fe   a202     goto    0x202            	GOTO	_00181_DS_
                                           _00178_DS_
                                           ;	.line	240; "MC32F7361.c"	cur_led_mode = tmp; // ČĂµĆąâµÄ×´Ě¬˛»±ä
0001ff   5816     movar   0x16             	MOVAR	_key_handle_tmp_65536_35
000200   5628     movra   0x28             	MOVRA	_cur_led_mode
                                           ;	.line	241; "MC32F7361.c"	return;             // Ö±˝ÓÍËłö
000201   a2b9     goto    0x2b9            	GOTO	_00217_DS_
                                           _00181_DS_
                                           ;	.line	245; "MC32F7361.c"	switch (key)
000202   5810     movar   0x10             	MOVAR	r0x101F
000203   3901     xorai   0x1              	XORAI	0x01
000204   e587     jbset   0x187, 0x2       	JBSET	PFLAG,2
000205   a207     goto    0x207            	GOTO	_00355_DS_
000206   a244     goto    0x244            	GOTO	_00182_DS_
                                           _00355_DS_
000207   5810     movar   0x10             	MOVAR	r0x101F
000208   3903     xorai   0x3              	XORAI	0x03
000209   e587     jbset   0x187, 0x2       	JBSET	PFLAG,2
00020a   a20c     goto    0x20c            	GOTO	_00356_DS_
00020b   a24e     goto    0x24e            	GOTO	_00186_DS_
                                           _00356_DS_
00020c   5810     movar   0x10             	MOVAR	r0x101F
00020d   3904     xorai   0x4              	XORAI	0x04
00020e   e587     jbset   0x187, 0x2       	JBSET	PFLAG,2
00020f   a211     goto    0x211            	GOTO	_00357_DS_
000210   a251     goto    0x251            	GOTO	_00187_DS_
                                           _00357_DS_
000211   5810     movar   0x10             	MOVAR	r0x101F
000212   3906     xorai   0x6              	XORAI	0x06
000213   e587     jbset   0x187, 0x2       	JBSET	PFLAG,2
000214   a216     goto    0x216            	GOTO	_00358_DS_
000215   a254     goto    0x254            	GOTO	_00188_DS_
                                           _00358_DS_
000216   5810     movar   0x10             	MOVAR	r0x101F
000217   3907     xorai   0x7              	XORAI	0x07
000218   e587     jbset   0x187, 0x2       	JBSET	PFLAG,2
000219   a21b     goto    0x21b            	GOTO	_00359_DS_
00021a   a257     goto    0x257            	GOTO	_00189_DS_
                                           _00359_DS_
00021b   5810     movar   0x10             	MOVAR	r0x101F
00021c   3909     xorai   0x9              	XORAI	0x09
00021d   e587     jbset   0x187, 0x2       	JBSET	PFLAG,2
00021e   a220     goto    0x220            	GOTO	_00360_DS_
00021f   a25a     goto    0x25a            	GOTO	_00190_DS_
                                           _00360_DS_
000220   5810     movar   0x10             	MOVAR	r0x101F
000221   390a     xorai   0xa              	XORAI	0x0a
000222   e587     jbset   0x187, 0x2       	JBSET	PFLAG,2
000223   a225     goto    0x225            	GOTO	_00361_DS_
000224   a25d     goto    0x25d            	GOTO	_00191_DS_
                                           _00361_DS_
000225   5810     movar   0x10             	MOVAR	r0x101F
000226   390c     xorai   0xc              	XORAI	0x0c
000227   e587     jbset   0x187, 0x2       	JBSET	PFLAG,2
000228   a22a     goto    0x22a            	GOTO	_00362_DS_
000229   a260     goto    0x260            	GOTO	_00192_DS_
                                           _00362_DS_
00022a   5810     movar   0x10             	MOVAR	r0x101F
00022b   390d     xorai   0xd              	XORAI	0x0d
00022c   e587     jbset   0x187, 0x2       	JBSET	PFLAG,2
00022d   a22f     goto    0x22f            	GOTO	_00363_DS_
00022e   a263     goto    0x263            	GOTO	_00193_DS_
                                           _00363_DS_
00022f   5810     movar   0x10             	MOVAR	r0x101F
000230   390f     xorai   0xf              	XORAI	0x0f
000231   e587     jbset   0x187, 0x2       	JBSET	PFLAG,2
000232   a234     goto    0x234            	GOTO	_00364_DS_
000233   a266     goto    0x266            	GOTO	_00194_DS_
                                           _00364_DS_
000234   5810     movar   0x10             	MOVAR	r0x101F
000235   3910     xorai   0x10             	XORAI	0x10
000236   e587     jbset   0x187, 0x2       	JBSET	PFLAG,2
000237   a239     goto    0x239            	GOTO	_00365_DS_
000238   a269     goto    0x269            	GOTO	_00195_DS_
                                           _00365_DS_
000239   5810     movar   0x10             	MOVAR	r0x101F
00023a   3912     xorai   0x12             	XORAI	0x12
00023b   e587     jbset   0x187, 0x2       	JBSET	PFLAG,2
00023c   a23e     goto    0x23e            	GOTO	_00366_DS_
00023d   a26c     goto    0x26c            	GOTO	_00196_DS_
                                           _00366_DS_
00023e   5810     movar   0x10             	MOVAR	r0x101F
00023f   3925     xorai   0x25             	XORAI	0x25
000240   e587     jbset   0x187, 0x2       	JBSET	PFLAG,2
000241   a243     goto    0x243            	GOTO	_00367_DS_
000242   a26f     goto    0x26f            	GOTO	_00197_DS_
                                           _00367_DS_
000243   a2af     goto    0x2af            	GOTO	_00212_DS_
                                           _00182_DS_
                                           ;	.line	249; "MC32F7361.c"	LED_CTL_PIN = 1;
000244   c990     bset    0x190, 0x4       	BSET	_IOP0bits,4
                                           ;	.line	252; "MC32F7361.c"	if (flag_is_dev_open)
000245   e22b     jbset   0x2b, 0x1        	JBSET	_flag1,1
000246   a248     goto    0x248            	GOTO	_00184_DS_
                                           ;	.line	254; "MC32F7361.c"	return;
000247   a2b9     goto    0x2b9            	GOTO	_00217_DS_
                                           _00184_DS_
                                           ;	.line	258; "MC32F7361.c"	delay_ms(15);
000248   3c0f     movai   0xf              	MOVAI	0x0f
000249   5606     movra   0x6              	MOVRA	STK00
00024a   3c00     movai   0                	MOVAI	0x00
00024b   8365     call    0x365            	CALL	_delay_ms
                                           ;	.line	262; "MC32F7361.c"	flag_is_dev_open = 1; // ±íĘľÉč±¸ŇŃ żŞĆô
00024c   c22b     bset    0x2b, 0x1        	BSET	_flag1,1
                                           ;	.line	263; "MC32F7361.c"	break;
00024d   a2b2     goto    0x2b2            	GOTO	_00213_DS_
                                           _00186_DS_
                                           ;	.line	266; "MC32F7361.c"	LED_CTL_PIN = 0;
00024e   d990     bclr    0x190, 0x4       	BCLR	_IOP0bits,4
                                           ;	.line	267; "MC32F7361.c"	flag_is_dev_open = 0; // ±íĘľÉč±¸ŇŃ ąŘ±Ő
00024f   d22b     bclr    0x2b, 0x1        	BCLR	_flag1,1
                                           ;	.line	268; "MC32F7361.c"	break;
000250   a2b2     goto    0x2b2            	GOTO	_00213_DS_
                                           _00187_DS_
                                           ;	.line	271; "MC32F7361.c"	cur_led_mode = LED_MODE_R2_C1;
000251   3c01     movai   0x1              	MOVAI	0x01
000252   5628     movra   0x28             	MOVRA	_cur_led_mode
                                           ;	.line	272; "MC32F7361.c"	break;
000253   a2b2     goto    0x2b2            	GOTO	_00213_DS_
                                           _00188_DS_
                                           ;	.line	275; "MC32F7361.c"	cur_led_mode = LED_MODE_R2_C2;
000254   3c05     movai   0x5              	MOVAI	0x05
000255   5628     movra   0x28             	MOVRA	_cur_led_mode
                                           ;	.line	276; "MC32F7361.c"	break;
000256   a2b2     goto    0x2b2            	GOTO	_00213_DS_
                                           _00189_DS_
                                           ;	.line	279; "MC32F7361.c"	cur_led_mode = LED_MODE_R3_C1;
000257   3c02     movai   0x2              	MOVAI	0x02
000258   5628     movra   0x28             	MOVRA	_cur_led_mode
                                           ;	.line	280; "MC32F7361.c"	break;
000259   a2b2     goto    0x2b2            	GOTO	_00213_DS_
                                           _00190_DS_
                                           ;	.line	283; "MC32F7361.c"	cur_led_mode = LED_MODE_R3_C2;
00025a   3c06     movai   0x6              	MOVAI	0x06
00025b   5628     movra   0x28             	MOVRA	_cur_led_mode
                                           ;	.line	284; "MC32F7361.c"	break;
00025c   a2b2     goto    0x2b2            	GOTO	_00213_DS_
                                           _00191_DS_
                                           ;	.line	287; "MC32F7361.c"	cur_led_mode = LED_MODE_R4_C1;
00025d   3c03     movai   0x3              	MOVAI	0x03
00025e   5628     movra   0x28             	MOVRA	_cur_led_mode
                                           ;	.line	288; "MC32F7361.c"	break;
00025f   a2b2     goto    0x2b2            	GOTO	_00213_DS_
                                           _00192_DS_
                                           ;	.line	291; "MC32F7361.c"	cur_led_mode = LED_MODE_R4_C2;
000260   3c07     movai   0x7              	MOVAI	0x07
000261   5628     movra   0x28             	MOVRA	_cur_led_mode
                                           ;	.line	292; "MC32F7361.c"	break;
000262   a2b2     goto    0x2b2            	GOTO	_00213_DS_
                                           _00193_DS_
                                           ;	.line	295; "MC32F7361.c"	cur_led_mode = LED_MODE_R5_C1;
000263   3c04     movai   0x4              	MOVAI	0x04
000264   5628     movra   0x28             	MOVRA	_cur_led_mode
                                           ;	.line	296; "MC32F7361.c"	break;
000265   a2b2     goto    0x2b2            	GOTO	_00213_DS_
                                           _00194_DS_
                                           ;	.line	299; "MC32F7361.c"	cur_led_mode = LED_MODE_R5_C2_MULTI_FLASH;
000266   3c0a     movai   0xa              	MOVAI	0x0a
000267   5628     movra   0x28             	MOVRA	_cur_led_mode
                                           ;	.line	300; "MC32F7361.c"	break;
000268   a2b2     goto    0x2b2            	GOTO	_00213_DS_
                                           _00195_DS_
                                           ;	.line	303; "MC32F7361.c"	cur_led_mode = LED_MODE_R6_C1_FLASH;
000269   3c09     movai   0x9              	MOVAI	0x09
00026a   5628     movra   0x28             	MOVRA	_cur_led_mode
                                           ;	.line	304; "MC32F7361.c"	break;
00026b   a2b2     goto    0x2b2            	GOTO	_00213_DS_
                                           _00196_DS_
                                           ;	.line	307; "MC32F7361.c"	cur_led_mode = LED_MODE_R6_C2_FADE;
00026c   3c08     movai   0x8              	MOVAI	0x08
00026d   5628     movra   0x28             	MOVRA	_cur_led_mode
                                           ;	.line	308; "MC32F7361.c"	break;
00026e   a2b2     goto    0x2b2            	GOTO	_00213_DS_
                                           _00197_DS_
                                           ;	.line	311; "MC32F7361.c"	if (flag_is_dev_open)   // ČçąűÉč±¸ŇŃľ­´ňżŞ
00026f   e22b     jbset   0x2b, 0x1        	JBSET	_flag1,1
000270   a2a6     goto    0x2a6            	GOTO	_00210_DS_
                                           ;	.line	313; "MC32F7361.c"	switch (cur_led_mode)
000271   5828     movar   0x28             	MOVAR	_cur_led_mode
000272   5610     movra   0x10             	MOVRA	r0x101F
                                           ;;unsigned compare: left < lit(0x1=1), size=1
000273   3c01     movai   0x1              	MOVAI	0x01
000274   4810     rsubar  0x10             	RSUBAR	r0x101F
000275   e187     jbset   0x187, 0         	JBSET	PFLAG,0
000276   a2b2     goto    0x2b2            	GOTO	_00213_DS_
                                           ;;genSkipc:3291: created from rifx:013B5EFC
                                           ;;swapping arguments (AOP_TYPEs 1/2)
                                           ;;unsigned compare: left >= lit(0xB=11), size=1
000277   3c0b     movai   0xb              	MOVAI	0x0b
000278   4810     rsubar  0x10             	RSUBAR	r0x101F
000279   f187     jbclr   0x187, 0         	JBCLR	PFLAG,0
00027a   a2b2     goto    0x2b2            	GOTO	_00213_DS_
                                           ;;genSkipc:3291: created from rifx:013B5EFC
00027b   6e10     decr    0x10             	DECR	r0x101F
00027c   5810     movar   0x10             	MOVAR	r0x101F
00027d   7f86     addra   0x186            	ADDRA	PCL
00027e   a288     goto    0x288            	GOTO	_00198_DS_
00027f   a28b     goto    0x28b            	GOTO	_00199_DS_
000280   a28e     goto    0x28e            	GOTO	_00200_DS_
000281   a291     goto    0x291            	GOTO	_00201_DS_
000282   a294     goto    0x294            	GOTO	_00202_DS_
000283   a297     goto    0x297            	GOTO	_00203_DS_
000284   a29a     goto    0x29a            	GOTO	_00204_DS_
000285   a29d     goto    0x29d            	GOTO	_00205_DS_
000286   a2a0     goto    0x2a0            	GOTO	_00206_DS_
000287   a2a3     goto    0x2a3            	GOTO	_00207_DS_
                                           _00198_DS_
                                           ;	.line	316; "MC32F7361.c"	cur_led_mode = LED_MODE_R3_C1; // ÇĐ»»ÎŞÂĚµĆ
000288   3c02     movai   0x2              	MOVAI	0x02
000289   5628     movra   0x28             	MOVRA	_cur_led_mode
                                           ;	.line	317; "MC32F7361.c"	break;
00028a   a2b2     goto    0x2b2            	GOTO	_00213_DS_
                                           _00199_DS_
                                           ;	.line	319; "MC32F7361.c"	cur_led_mode = LED_MODE_R4_C1; // ÇĐ»»ÎŞłČµĆ
00028b   3c03     movai   0x3              	MOVAI	0x03
00028c   5628     movra   0x28             	MOVRA	_cur_led_mode
                                           ;	.line	320; "MC32F7361.c"	break;
00028d   a2b2     goto    0x2b2            	GOTO	_00213_DS_
                                           _00200_DS_
                                           ;	.line	322; "MC32F7361.c"	cur_led_mode = LED_MODE_R5_C1; // ÇĐ»»ÎŞ°×µĆ
00028e   3c04     movai   0x4              	MOVAI	0x04
00028f   5628     movra   0x28             	MOVRA	_cur_led_mode
                                           ;	.line	323; "MC32F7361.c"	break;
000290   a2b2     goto    0x2b2            	GOTO	_00213_DS_
                                           _00201_DS_
                                           ;	.line	325; "MC32F7361.c"	cur_led_mode = LED_MODE_R2_C2; // ÇĐ»»ÎŞ×ĎµĆ
000291   3c05     movai   0x5              	MOVAI	0x05
000292   5628     movra   0x28             	MOVRA	_cur_led_mode
                                           ;	.line	326; "MC32F7361.c"	break;
000293   a2b2     goto    0x2b2            	GOTO	_00213_DS_
                                           _00202_DS_
                                           ;	.line	328; "MC32F7361.c"	cur_led_mode = LED_MODE_R3_C2; // ÇĐ»»ÎŞ»ĆµĆ
000294   3c06     movai   0x6              	MOVAI	0x06
000295   5628     movra   0x28             	MOVRA	_cur_led_mode
                                           ;	.line	329; "MC32F7361.c"	break;
000296   a2b2     goto    0x2b2            	GOTO	_00213_DS_
                                           _00203_DS_
                                           ;	.line	331; "MC32F7361.c"	cur_led_mode = LED_MODE_R4_C2; // ÇĐ»»ÎŞŔ¶µĆ
000297   3c07     movai   0x7              	MOVAI	0x07
000298   5628     movra   0x28             	MOVRA	_cur_led_mode
                                           ;	.line	332; "MC32F7361.c"	break;
000299   a2b2     goto    0x2b2            	GOTO	_00213_DS_
                                           _00204_DS_
                                           ;	.line	334; "MC32F7361.c"	cur_led_mode = LED_MODE_R6_C2_FADE; // ÇĐ»»ÎŞ FADE ÄŁĘ˝
00029a   3c08     movai   0x8              	MOVAI	0x08
00029b   5628     movra   0x28             	MOVRA	_cur_led_mode
                                           ;	.line	335; "MC32F7361.c"	break;
00029c   a2b2     goto    0x2b2            	GOTO	_00213_DS_
                                           _00205_DS_
                                           ;	.line	337; "MC32F7361.c"	cur_led_mode = LED_MODE_R6_C1_FLASH; // ÇĐ»»ÎŞ FLASH ÄŁĘ˝
00029d   3c09     movai   0x9              	MOVAI	0x09
00029e   5628     movra   0x28             	MOVRA	_cur_led_mode
                                           ;	.line	338; "MC32F7361.c"	break;
00029f   a2b2     goto    0x2b2            	GOTO	_00213_DS_
                                           _00206_DS_
                                           ;	.line	340; "MC32F7361.c"	cur_led_mode = LED_MODE_R5_C2_MULTI_FLASH; // ÇĐ»»ÎŞ MULTI_FALSH ÄŁĘ˝
0002a0   3c0a     movai   0xa              	MOVAI	0x0a
0002a1   5628     movra   0x28             	MOVRA	_cur_led_mode
                                           ;	.line	341; "MC32F7361.c"	break;
0002a2   a2b2     goto    0x2b2            	GOTO	_00213_DS_
                                           _00207_DS_
                                           ;	.line	343; "MC32F7361.c"	LED_CTL_PIN = 0;
0002a3   d990     bclr    0x190, 0x4       	BCLR	_IOP0bits,4
                                           ;	.line	344; "MC32F7361.c"	flag_is_dev_open = 0; // ±íĘľÉč±¸ŇŃ ąŘ±Ő
0002a4   d22b     bclr    0x2b, 0x1        	BCLR	_flag1,1
                                           ;	.line	346; "MC32F7361.c"	}
0002a5   a2b2     goto    0x2b2            	GOTO	_00213_DS_
                                           _00210_DS_
                                           ;	.line	350; "MC32F7361.c"	LED_CTL_PIN = 1;
0002a6   c990     bset    0x190, 0x4       	BSET	_IOP0bits,4
                                           ;	.line	351; "MC32F7361.c"	delay_ms(5);
0002a7   3c05     movai   0x5              	MOVAI	0x05
0002a8   5606     movra   0x6              	MOVRA	STK00
0002a9   3c00     movai   0                	MOVAI	0x00
0002aa   8365     call    0x365            	CALL	_delay_ms
                                           ;	.line	352; "MC32F7361.c"	cur_led_mode = LED_MODE_R2_C1; // ÇĐ»»ÎŞşěµĆ
0002ab   3c01     movai   0x1              	MOVAI	0x01
0002ac   5628     movra   0x28             	MOVRA	_cur_led_mode
                                           ;	.line	353; "MC32F7361.c"	flag_is_dev_open = 1;          // ±íĘľÉč±¸ŇŃ żŞĆô
0002ad   c22b     bset    0x2b, 0x1        	BSET	_flag1,1
                                           ;	.line	355; "MC32F7361.c"	break;
0002ae   a2b2     goto    0x2b2            	GOTO	_00213_DS_
                                           _00212_DS_
                                           ;	.line	359; "MC32F7361.c"	cur_led_mode = tmp; // ČĂµĆąâµÄ×´Ě¬˛»±ä
0002af   5816     movar   0x16             	MOVAR	_key_handle_tmp_65536_35
0002b0   5628     movra   0x28             	MOVRA	_cur_led_mode
                                           ;	.line	360; "MC32F7361.c"	return;             // Ö±˝ÓÍËłö
0002b1   a2b9     goto    0x2b9            	GOTO	_00217_DS_
                                           _00213_DS_
                                           ;	.line	364; "MC32F7361.c"	if (0 == flag_is_dev_open) // ČçąűÉč±¸Î´żŞĆôŁ¬˛»·˘ËÍĘýľÝÖˇ
0002b2   f22b     jbclr   0x2b, 0x1        	JBCLR	_flag1,1
0002b3   a2b7     goto    0x2b7            	GOTO	_00215_DS_
                                           ;	.line	366; "MC32F7361.c"	cur_led_mode = tmp; // ČĂµĆąâµÄ×´Ě¬˛»±äŁ¬·ŔÖąąŘ»úşóŁ¬ÔŮ°´ĎÂŇŁżŘĆ÷µÄĆäËűÄŁĘ˝°´ĽüŁ¬ÔŮżŞ»úŁ¬˝ř¶ř¸Ä±äÁËµĆąâµÄÄŁĘ˝
0002b4   5816     movar   0x16             	MOVAR	_key_handle_tmp_65536_35
0002b5   5628     movra   0x28             	MOVRA	_cur_led_mode
0002b6   a2b9     goto    0x2b9            	GOTO	_00217_DS_
                                           _00215_DS_
                                           ;	.line	370; "MC32F7361.c"	led_mode_handle(cur_led_mode);
0002b7   5828     movar   0x28             	MOVAR	_cur_led_mode
0002b8   82f0     call    0x2f0            	CALL	_led_mode_handle
                                           _00217_DS_
                                           ;	.line	372; "MC32F7361.c"	}
0002b9   000c     return                   	RETURN	
                                           ; exit point of _key_handle
                                           
                                           ;***
                                           ;  pBlock Stats: dbName = C
                                           ;***
                                           ;entry:  _Sys_Init	;Function start
                                           ; 2 exit points
                                           ;has an exit
                                           ;functions called:
                                           ;   _CLR_RAM
                                           ;   _IO_Init
                                           ;   _TIMER2_INT_Init
                                           ;   _CLR_RAM
                                           ;   _IO_Init
                                           ;   _TIMER2_INT_Init
                                           ;; Starting pCode block
                                           _Sys_Init	;Function start
                                           ; 2 exit points
                                           ;	.line	148; "MC32F7361.c"	GIE = 0;
0002ba   df88     bclr    0x188, 0x7       	BCLR	_MCRbits,7
                                           ;	.line	149; "MC32F7361.c"	CLR_RAM();
0002bb   82e4     call    0x2e4            	CALL	_CLR_RAM
                                           ;	.line	150; "MC32F7361.c"	IO_Init();
0002bc   82cd     call    0x2cd            	CALL	_IO_Init
                                           ;	.line	154; "MC32F7361.c"	TIMER2_INT_Init();
0002bd   82c4     call    0x2c4            	CALL	_TIMER2_INT_Init
                                           ;	.line	163; "MC32F7361.c"	P13PU = 1; // ÉĎŔ­
0002be   c796     bset    0x196, 0x3       	BSET	_PUP1bits,3
                                           ;	.line	164; "MC32F7361.c"	P13OE = 0; // ĘäČëÄŁĘ˝
0002bf   d795     bclr    0x195, 0x3       	BCLR	_OEP1bits,3
                                           ;	.line	171; "MC32F7361.c"	P16PU = 1; // ÉĎŔ­
0002c0   cd96     bset    0x196, 0x6       	BSET	_PUP1bits,6
                                           ;	.line	172; "MC32F7361.c"	P16OE = 0; // ĘäČëÄŁĘ˝
0002c1   dd95     bclr    0x195, 0x6       	BCLR	_OEP1bits,6
                                           ;	.line	174; "MC32F7361.c"	GIE = 1;
0002c2   cf88     bset    0x188, 0x7       	BSET	_MCRbits,7
                                           ;	.line	175; "MC32F7361.c"	}
0002c3   000c     return                   	RETURN	
                                           ; exit point of _Sys_Init
                                           
                                           ;***
                                           ;  pBlock Stats: dbName = C
                                           ;***
                                           ;entry:  _TIMER2_INT_Init	;Function start
                                           ; 2 exit points
                                           ;has an exit
                                           ;; Starting pCode block
                                           _TIMER2_INT_Init	;Function start
                                           ; 2 exit points
                                           ;	.line	134; "MC32F7361.c"	T2CR = DEF_SET_BIT0 | DEF_SET_BIT1; // CPU,8·ÖĆµ
0002c4   3c03     movai   0x3              	MOVAI	0x03
0002c5   57a0     movra   0x1a0            	MOVRA	_T2CR
                                           ;	.line	135; "MC32F7361.c"	T2CNT = 100 - 1;
0002c6   3c63     movai   0x63             	MOVAI	0x63
0002c7   57a1     movra   0x1a1            	MOVRA	_T2CNT
                                           ;	.line	136; "MC32F7361.c"	T2LOAD = 100 - 1; // 100us
0002c8   3c63     movai   0x63             	MOVAI	0x63
0002c9   57a2     movra   0x1a2            	MOVRA	_T2LOAD
                                           ;	.line	137; "MC32F7361.c"	T2EN = 1;
0002ca   cfa0     bset    0x1a0, 0x7       	BSET	_T2CRbits,7
                                           ;	.line	138; "MC32F7361.c"	T2IE = 1;
0002cb   cb8a     bset    0x18a, 0x5       	BSET	_INTEbits,5
                                           ;	.line	139; "MC32F7361.c"	}
0002cc   000c     return                   	RETURN	
                                           ; exit point of _TIMER2_INT_Init
                                           
                                           ;***
                                           ;  pBlock Stats: dbName = C
                                           ;***
                                           ;entry:  _IO_Init	;Function start
                                           ; 2 exit points
                                           ;has an exit
                                           ;; Starting pCode block
                                           _IO_Init	;Function start
                                           ; 2 exit points
                                           ;	.line	102; "MC32F7361.c"	IOP0 = (0x01 << 0); // iożÚĘýľÝÎ»Ł¬P00Ęäłö¸ßµçĆ˝
0002cd   3c01     movai   0x1              	MOVAI	0x01
0002ce   5790     movra   0x190            	MOVRA	_IOP0
                                           ;	.line	103; "MC32F7361.c"	OEP0 = 0x3F;        // iożÚ·˝Ďň 1:out  0:in
0002cf   3c3f     movai   0x3f             	MOVAI	0x3f
0002d0   5791     movra   0x191            	MOVRA	_OEP0
                                           ;	.line	104; "MC32F7361.c"	PUP0 = 0x00;        // iożÚÉĎŔ­µç×č   1:enable  0:disable
0002d1   7792     clrr    0x192            	CLRR	_PUP0
                                           ;	.line	105; "MC32F7361.c"	PDP0 = 0x00;        // iożÚĎÂŔ­µç×č   1:enable  0:disable
0002d2   7793     clrr    0x193            	CLRR	_PDP0
                                           ;	.line	106; "MC32F7361.c"	P0ADCR = 0x00;      // ioŔŕĐÍŃˇÔń  1:ÄŁÄâĘäČë  0:Í¨ÓĂio
0002d3   77b6     clrr    0x1b6            	CLRR	_P0ADCR
                                           ;	.line	111; "MC32F7361.c"	IOP1 = (0x01 << 7) | (0x01 << 5); // iożÚĘýľÝÎ», P15Ęäłö¸ßµçĆ˝Ł¬P17Ęäłö¸ßµçĆ˝
0002d4   3ca0     movai   0xa0             	MOVAI	0xa0
0002d5   5794     movra   0x194            	MOVRA	_IOP1
                                           ;	.line	112; "MC32F7361.c"	OEP1 = 0xFF;                      // iożÚ·˝Ďň 1:out  0:in
0002d6   3cff     movai   0xff             	MOVAI	0xff
0002d7   5795     movra   0x195            	MOVRA	_OEP1
                                           ;	.line	113; "MC32F7361.c"	PUP1 = 0x00;                      // iożÚÉĎŔ­µç×č   1:enable  0:disable
0002d8   7796     clrr    0x196            	CLRR	_PUP1
                                           ;	.line	114; "MC32F7361.c"	PDP1 = 0x00;                      // iożÚĎÂŔ­µç×č   1:enable  0:disable
0002d9   7797     clrr    0x197            	CLRR	_PDP1
                                           ;	.line	115; "MC32F7361.c"	P1ADCR = 0x00;                    // ioŔŕĐÍŃˇÔń  1:ÄŁÄâĘäČë  0:Í¨ÓĂio
0002da   77b7     clrr    0x1b7            	CLRR	_P1ADCR
                                           ;	.line	117; "MC32F7361.c"	IOP2 = 0x00; // iożÚĘýľÝÎ»
0002db   77b8     clrr    0x1b8            	CLRR	_IOP2
                                           ;	.line	118; "MC32F7361.c"	OEP2 = 0x0F; // iożÚ·˝Ďň 1:out  0:in
0002dc   3c0f     movai   0xf              	MOVAI	0x0f
0002dd   57b9     movra   0x1b9            	MOVRA	_OEP2
                                           ;	.line	119; "MC32F7361.c"	PUP2 = 0x00; // iożÚÉĎŔ­µç×č   1:enable  0:disable
0002de   77ba     clrr    0x1ba            	CLRR	_PUP2
                                           ;	.line	120; "MC32F7361.c"	PDP2 = 0x00; // iożÚĎÂŔ­µç×č   1:enable  0:disablea
0002df   77bb     clrr    0x1bb            	CLRR	_PDP2
                                           ;	.line	122; "MC32F7361.c"	PMOD = 0x00;  // P00ˇ˘P01ˇ˘P13 io¶ËżÚÖµ´ÓĽÄ´ćĆ÷¶ÁŁ¬ÍĆÍěĘäłö
0002e0   77bc     clrr    0x1bc            	CLRR	_PMOD
                                           ;	.line	123; "MC32F7361.c"	DRVCR = 0x80; // ĆŐÍ¨Çý¶Ż
0002e1   3c80     movai   0x80             	MOVAI	0x80
0002e2   578c     movra   0x18c            	MOVRA	_DRVCR
                                           ;	.line	124; "MC32F7361.c"	}
0002e3   000c     return                   	RETURN	
                                           ; exit point of _IO_Init
                                           
                                           ;***
                                           ;  pBlock Stats: dbName = C
                                           ;***
                                           ;entry:  _CLR_RAM	;Function start
                                           ; 2 exit points
                                           ;has an exit
                                           ;; Starting pCode block
                                           _CLR_RAM	;Function start
                                           ; 2 exit points
                                           ;	.line	84; "MC32F7361.c"	for (FSR0 = 0; FSR0 < 0xff; FSR0++)
0002e4   7784     clrr    0x184            	CLRR	_FSR0
                                           ;;unsigned compare: left < lit(0xFF=255), size=1
                                           _00149_DS_
0002e5   3cff     movai   0xff             	MOVAI	0xff
0002e6   4984     rsubar  0x184            	RSUBAR	_FSR0
0002e7   f187     jbclr   0x187, 0         	JBCLR	PFLAG,0
0002e8   a2ec     goto    0x2ec            	GOTO	_00147_DS_
                                           ;;genSkipc:3291: created from rifx:013B5EFC
                                           ;	.line	86; "MC32F7361.c"	INDF0 = 0x00;
0002e9   7780     clrr    0x180            	CLRR	_INDF0
                                           ;	.line	84; "MC32F7361.c"	for (FSR0 = 0; FSR0 < 0xff; FSR0++)
0002ea   6784     incr    0x184            	INCR	_FSR0
0002eb   a2e5     goto    0x2e5            	GOTO	_00149_DS_
                                           _00147_DS_
                                           ;	.line	88; "MC32F7361.c"	FSR0 = 0xFF;
0002ec   3cff     movai   0xff             	MOVAI	0xff
0002ed   5784     movra   0x184            	MOVRA	_FSR0
                                           ;	.line	89; "MC32F7361.c"	INDF0 = 0x00;
0002ee   7780     clrr    0x180            	CLRR	_INDF0
                                           ;	.line	90; "MC32F7361.c"	}
0002ef   000c     return                   	RETURN	
                                           ; exit point of _CLR_RAM
                                           
                                           ;***
                                           ;  pBlock Stats: dbName = C
                                           ;***
                                           ;entry:  _led_mode_handle	;Function start
                                           ; 2 exit points
                                           ;has an exit
                                           ;functions called:
                                           ;   _EEPROM_Write_Byte
                                           ;   _EEPROM_Write_Byte
                                           ;   _delay_10us
                                           ;   _delay_10us
                                           ;   _delay_ms
                                           ;   _EEPROM_Write_Byte
                                           ;   _EEPROM_Write_Byte
                                           ;   _delay_10us
                                           ;   _delay_10us
                                           ;   _delay_ms
                                           ;5 compiler assigned registers:
                                           ;   r0x101C
                                           ;   r0x101D
                                           ;   r0x101E
                                           ;   STK01
                                           ;   STK00
                                           ;; Starting pCode block
                                           _led_mode_handle	;Function start
                                           ; 2 exit points
                                           ;	.line	47; "MC32F7361.c"	void led_mode_handle(const u8 period)
0002f0   560d     movra   0xd              	MOVRA	r0x101C
                                           ;	.line	52; "MC32F7361.c"	EEPROM_Write_Byte(1, cur_led_mode); // ±Ł´ćµ±Ç°µÄÄŁĘ˝µ˝EEPROMÖĐ
0002f1   5828     movar   0x28             	MOVAR	_cur_led_mode
0002f2   560e     movra   0xe              	MOVRA	r0x101D
0002f3   760f     clrr    0xf              	CLRR	r0x101E
0002f4   580e     movar   0xe              	MOVAR	r0x101D
0002f5   5605     movra   0x5              	MOVRA	STK01
0002f6   3c00     movai   0                	MOVAI	0x00
0002f7   5606     movra   0x6              	MOVRA	STK00
0002f8   3c01     movai   0x1              	MOVAI	0x01
0002f9   834e     call    0x34e            	CALL	_EEPROM_Write_Byte
                                           ;	.line	53; "MC32F7361.c"	EEPROM_Write_Byte(2, (u16)0xA5A6);
0002fa   3ca6     movai   0xa6             	MOVAI	0xa6
0002fb   5605     movra   0x5              	MOVRA	STK01
0002fc   3ca5     movai   0xa5             	MOVAI	0xa5
0002fd   5606     movra   0x6              	MOVRA	STK00
0002fe   3c02     movai   0x2              	MOVAI	0x02
0002ff   834e     call    0x34e            	CALL	_EEPROM_Write_Byte
                                           ;	.line	55; "MC32F7361.c"	GIE = 0; // ĆÁ±Î×ÜÖĐ¶Ď
000300   df88     bclr    0x188, 0x7       	BCLR	_MCRbits,7
                                           ;	.line	57; "MC32F7361.c"	for (i = 0; i < 10; i++)
000301   760e     clrr    0xe              	CLRR	r0x101D
                                           _00142_DS_
                                           ;	.line	59; "MC32F7361.c"	LED_CTL_PIN = 1;
000302   c990     bset    0x190, 0x4       	BSET	_IOP0bits,4
                                           ;	.line	61; "MC32F7361.c"	for (j = 0; j < period; j++)
000303   760f     clrr    0xf              	CLRR	r0x101E
                                           _00140_DS_
000304   580d     movar   0xd              	MOVAR	r0x101C
000305   480f     rsubar  0xf              	RSUBAR	r0x101E
000306   f187     jbclr   0x187, 0         	JBCLR	PFLAG,0
000307   a314     goto    0x314            	GOTO	_00137_DS_
                                           ;;genSkipc:3291: created from rifx:013B5EFC
                                           ;	.line	63; "MC32F7361.c"	LED_CTL_PIN = 0;
000308   d990     bclr    0x190, 0x4       	BCLR	_IOP0bits,4
                                           ;	.line	64; "MC32F7361.c"	delay_10us(1);
000309   3c01     movai   0x1              	MOVAI	0x01
00030a   5606     movra   0x6              	MOVRA	STK00
00030b   3c00     movai   0                	MOVAI	0x00
00030c   831f     call    0x31f            	CALL	_delay_10us
                                           ;	.line	65; "MC32F7361.c"	LED_CTL_PIN = 1;
00030d   c990     bset    0x190, 0x4       	BSET	_IOP0bits,4
                                           ;	.line	67; "MC32F7361.c"	delay_10us(5);
00030e   3c05     movai   0x5              	MOVAI	0x05
00030f   5606     movra   0x6              	MOVRA	STK00
000310   3c00     movai   0                	MOVAI	0x00
000311   831f     call    0x31f            	CALL	_delay_10us
                                           ;	.line	61; "MC32F7361.c"	for (j = 0; j < period; j++)
000312   660f     incr    0xf              	INCR	r0x101E
000313   a304     goto    0x304            	GOTO	_00140_DS_
                                           _00137_DS_
                                           ;	.line	70; "MC32F7361.c"	delay_ms(2); // Ăż¸öÖ¸ÁîĽä¸ô1msŇÔÉĎ
000314   3c02     movai   0x2              	MOVAI	0x02
000315   5606     movra   0x6              	MOVRA	STK00
000316   3c00     movai   0                	MOVAI	0x00
000317   8365     call    0x365            	CALL	_delay_ms
                                           ;	.line	57; "MC32F7361.c"	for (i = 0; i < 10; i++)
000318   660e     incr    0xe              	INCR	r0x101D
                                           ;;unsigned compare: left < lit(0xA=10), size=1
000319   3c0a     movai   0xa              	MOVAI	0x0a
00031a   480e     rsubar  0xe              	RSUBAR	r0x101D
00031b   e187     jbset   0x187, 0         	JBSET	PFLAG,0
00031c   a302     goto    0x302            	GOTO	_00142_DS_
                                           ;;genSkipc:3291: created from rifx:013B5EFC
                                           ;	.line	73; "MC32F7361.c"	GIE = 1; // ĘąÄÜ×ÜÖĐ¶Ď
00031d   cf88     bset    0x188, 0x7       	BSET	_MCRbits,7
                                           ;	.line	74; "MC32F7361.c"	}
00031e   000c     return                   	RETURN	
                                           ; exit point of _led_mode_handle
                                           
                                           ;***
                                           ;  pBlock Stats: dbName = C
                                           ;***
                                           ;entry:  _delay_10us	;Function start
                                           ; 2 exit points
                                           ;has an exit
                                           ;5 compiler assigned registers:
                                           ;   r0x1016
                                           ;   STK00
                                           ;   r0x1017
                                           ;   r0x1018
                                           ;   r0x1019
                                           ;; Starting pCode block
                                           _delay_10us	;Function start
                                           ; 2 exit points
                                           ;	.line	17; "MC32F7361.c"	void delay_10us(u16 x_10us)
00031f   5608     movra   0x8              	MOVRA	r0x1016
000320   5806     movar   0x6              	MOVAR	STK00
000321   5607     movra   0x7              	MOVRA	r0x1017
                                           _00129_DS_
                                           ;	.line	19; "MC32F7361.c"	while (x_10us)
000322   5807     movar   0x7              	MOVAR	r0x1017
000323   5c08     orar    0x8              	ORAR	r0x1016
000324   f587     jbclr   0x187, 0x2       	JBCLR	PFLAG,2
000325   a336     goto    0x336            	GOTO	_00132_DS_
                                           ;	.line	23; "MC32F7361.c"	while (i--)
000326   3c05     movai   0x5              	MOVAI	0x05
000327   5609     movra   0x9              	MOVRA	r0x1018
                                           _00126_DS_
000328   5809     movar   0x9              	MOVAR	r0x1018
000329   560a     movra   0xa              	MOVRA	r0x1019
00032a   6e09     decr    0x9              	DECR	r0x1018
00032b   3c00     movai   0                	MOVAI	0x00
00032c   5c0a     orar    0xa              	ORAR	r0x1019
00032d   f587     jbclr   0x187, 0x2       	JBCLR	PFLAG,2
00032e   a331     goto    0x331            	GOTO	_00128_DS_
                                           ;	.line	25; "MC32F7361.c"	Nop();
00032f   0000     nop                      	nop	
000330   a328     goto    0x328            	GOTO	_00126_DS_
                                           _00128_DS_
                                           ;	.line	28; "MC32F7361.c"	x_10us--;
000331   3cff     movai   0xff             	MOVAI	0xff
000332   7e07     addra   0x7              	ADDRA	r0x1017
000333   e187     jbset   0x187, 0         	JBSET	PFLAG,0
000334   6e08     decr    0x8              	DECR	r0x1016
000335   a322     goto    0x322            	GOTO	_00129_DS_
                                           _00132_DS_
                                           ;	.line	30; "MC32F7361.c"	}
000336   000c     return                   	RETURN	
                                           ; exit point of _delay_10us
                                           
                                           ;***
                                           ;  pBlock Stats: dbName = C
                                           ;***
                                           ;entry:  _EEPROM_Read_Byte	;Function start
                                           ; 2 exit points
                                           ;has an exit
                                           ;5 compiler assigned registers:
                                           ;   r0x1016
                                           ;   r0x1017
                                           ;   r0x1018
                                           ;   r0x1019
                                           ;   STK00
                                           ;; Starting pCode block
                                           _EEPROM_Read_Byte	;Function start
                                           ; 2 exit points
                                           ;	.line	227; "user.h"	uint16_t EEPROM_Read_Byte(u8 addr)
000337   57c5     movra   0x1c5            	MOVRA	_EEAR
                                           ;	.line	231; "user.h"	EECR = 0x02; // Ćô¶Ż EE ¶Á˛Ů×÷
000338   3c02     movai   0x2              	MOVAI	0x02
000339   57c3     movra   0x1c3            	MOVRA	_EECR
                                           ;	.line	232; "user.h"	Nop();
00033a   0000     nop                      	nop	
                                           ;	.line	233; "user.h"	Nop();
00033b   0000     nop                      	nop	
                                           _00121_DS_
                                           ;	.line	234; "user.h"	while (EEREAD) // Ľě˛é EE Đ´˛Ů×÷ĘÇ·ńÍęłÉ
00033c   f3c3     jbclr   0x1c3, 0x1       	JBCLR	_EECRbits,1
00033d   a33c     goto    0x33c            	GOTO	_00121_DS_
                                           ;	.line	238; "user.h"	EEDR = (EEDRH << 8) | EEDRL;
00033e   59c6     movar   0x1c6            	MOVAR	_EEDRH
00033f   5609     movra   0x9              	MOVRA	r0x1018
000340   5608     movra   0x8              	MOVRA	r0x1016
000341   7607     clrr    0x7              	CLRR	r0x1017
                                           ;;100	MOVAR	r0x1016
000342   760a     clrr    0xa              	CLRR	r0x1019
000343   59c7     movar   0x1c7            	MOVAR	_EEDRL
000344   5608     movra   0x8              	MOVRA	r0x1016
000345   7607     clrr    0x7              	CLRR	r0x1017
000346   5808     movar   0x8              	MOVAR	r0x1016
000347   5e0a     orra    0xa              	ORRA	r0x1019
000348   3c00     movai   0                	MOVAI	0x00
000349   5e09     orra    0x9              	ORRA	r0x1018
                                           ;	.line	239; "user.h"	return EEDR;
00034a   580a     movar   0xa              	MOVAR	r0x1019
00034b   5606     movra   0x6              	MOVRA	STK00
00034c   5809     movar   0x9              	MOVAR	r0x1018
                                           ;	.line	240; "user.h"	}
00034d   000c     return                   	RETURN	
                                           ; exit point of _EEPROM_Read_Byte
                                           
                                           ;***
                                           ;  pBlock Stats: dbName = C
                                           ;***
                                           ;entry:  _EEPROM_Write_Byte	;Function start
                                           ; 2 exit points
                                           ;has an exit
                                           ;6 compiler assigned registers:
                                           ;   STK00
                                           ;   r0x1016
                                           ;   STK01
                                           ;   r0x1017
                                           ;   r0x1018
                                           ;   r0x1019
                                           ;; Starting pCode block
                                           _EEPROM_Write_Byte	;Function start
                                           ; 2 exit points
                                           ;	.line	203; "user.h"	void EEPROM_Write_Byte(uint8_t addr, uint16_t data)
00034e   57c5     movra   0x1c5            	MOVRA	_EEAR
00034f   5806     movar   0x6              	MOVAR	STK00
000350   5609     movra   0x9              	MOVRA	r0x1018
                                           ;;1	MOVRA	r0x1016
000351   5805     movar   0x5              	MOVAR	STK01
000352   5607     movra   0x7              	MOVRA	r0x1017
                                           ;	.line	205; "user.h"	HFEN = 1;
000353   c1ae     bset    0x1ae, 0         	BSET	_OSCMRbits,0
                                           ;;99	MOVAR	r0x1016
                                           ;;1	CLRR	r0x1019
                                           ;	.line	207; "user.h"	EEDRH = (data >> 8) & 0xff;
000354   5809     movar   0x9              	MOVAR	r0x1018
000355   57c6     movra   0x1c6            	MOVRA	_EEDRH
                                           ;	.line	208; "user.h"	EEDRL = data & 0xff;
000356   5807     movar   0x7              	MOVAR	r0x1017
000357   57c7     movra   0x1c7            	MOVRA	_EEDRL
                                           ;	.line	209; "user.h"	GIE = 0;
000358   df88     bclr    0x188, 0x7       	BCLR	_MCRbits,7
                                           ;	.line	210; "user.h"	EEPR = 0x5A;
000359   3c5a     movai   0x5a             	MOVAI	0x5a
00035a   57c4     movra   0x1c4            	MOVRA	_EEPR
                                           ;	.line	211; "user.h"	EEPR = 0xA5; // ˝âłý±Ł»¤
00035b   3ca5     movai   0xa5             	MOVAI	0xa5
00035c   57c4     movra   0x1c4            	MOVRA	_EEPR
                                           ;	.line	212; "user.h"	EECR = 0x01; // Ćô¶ŻEEPROM¶ÁĐ´  Đ´ĘýľÝ˛Ů×÷
00035d   3c01     movai   0x1              	MOVAI	0x01
00035e   57c3     movra   0x1c3            	MOVRA	_EECR
                                           ;	.line	213; "user.h"	Nop();
00035f   0000     nop                      	nop	
                                           ;	.line	214; "user.h"	Nop();
000360   0000     nop                      	nop	
                                           _00116_DS_
                                           ;	.line	215; "user.h"	while (EEWRITE) // Ľě˛é EE Đ´˛Ů×÷ĘÇ·ńÍęłÉ
000361   f1c3     jbclr   0x1c3, 0         	JBCLR	_EECRbits,0
000362   a361     goto    0x361            	GOTO	_00116_DS_
                                           ;	.line	219; "user.h"	GIE = 1;
000363   cf88     bset    0x188, 0x7       	BSET	_MCRbits,7
                                           ;	.line	220; "user.h"	}
000364   000c     return                   	RETURN	
                                           ; exit point of _EEPROM_Write_Byte
                                           
                                           ;***
                                           ;  pBlock Stats: dbName = C
                                           ;***
                                           ;entry:  _delay_ms	;Function start
                                           ; 2 exit points
                                           ;has an exit
                                           ;7 compiler assigned registers:
                                           ;   r0x1016
                                           ;   STK00
                                           ;   r0x1017
                                           ;   r0x1018
                                           ;   r0x1019
                                           ;   r0x101A
                                           ;   r0x101B
                                           ;; Starting pCode block
                                           _delay_ms	;Function start
                                           ; 2 exit points
                                           ;	.line	180; "user.h"	void delay_ms(u16 xms)
000365   5608     movra   0x8              	MOVRA	r0x1016
000366   5806     movar   0x6              	MOVAR	STK00
000367   5607     movra   0x7              	MOVRA	r0x1017
                                           _00108_DS_
                                           ;	.line	182; "user.h"	while (xms)
000368   5807     movar   0x7              	MOVAR	r0x1017
000369   5c08     orar    0x8              	ORAR	r0x1016
00036a   f587     jbclr   0x187, 0x2       	JBCLR	PFLAG,2
00036b   a384     goto    0x384            	GOTO	_00111_DS_
                                           ;	.line	185; "user.h"	while (i--)
00036c   3c05     movai   0x5              	MOVAI	0x05
00036d   5609     movra   0x9              	MOVRA	r0x1018
00036e   3c02     movai   0x2              	MOVAI	0x02
00036f   560a     movra   0xa              	MOVRA	r0x1019
                                           _00105_DS_
000370   5809     movar   0x9              	MOVAR	r0x1018
000371   560b     movra   0xb              	MOVRA	r0x101A
000372   580a     movar   0xa              	MOVAR	r0x1019
000373   560c     movra   0xc              	MOVRA	r0x101B
000374   3cff     movai   0xff             	MOVAI	0xff
000375   7e09     addra   0x9              	ADDRA	r0x1018
000376   e187     jbset   0x187, 0         	JBSET	PFLAG,0
000377   6e0a     decr    0xa              	DECR	r0x1019
000378   580b     movar   0xb              	MOVAR	r0x101A
000379   5c0c     orar    0xc              	ORAR	r0x101B
00037a   f587     jbclr   0x187, 0x2       	JBCLR	PFLAG,2
00037b   a37e     goto    0x37e            	GOTO	_00107_DS_
                                           ;	.line	187; "user.h"	Nop();
00037c   0000     nop                      	nop	
00037d   a370     goto    0x370            	GOTO	_00105_DS_
                                           _00107_DS_
                                           ;	.line	189; "user.h"	xms--; // °Ń --˛Ů×÷·ĹÔÚwhile()ĹĐ¶ĎĚőĽţÍâĂćŁ¬¸ü˝ÚĘˇżŐĽä
00037e   3cff     movai   0xff             	MOVAI	0xff
00037f   7e07     addra   0x7              	ADDRA	r0x1017
000380   e187     jbset   0x187, 0         	JBSET	PFLAG,0
000381   6e08     decr    0x8              	DECR	r0x1016
                                           ;	.line	193; "user.h"	__endasm;
                                           	;
000382   000e     clrwdt                   	clrwdt;
                                           	
000383   a368     goto    0x368            	GOTO	_00108_DS_
                                           _00111_DS_
                                           ;	.line	195; "user.h"	}
000384   000c     return                   	RETURN	
                                           ; exit point of _delay_ms
                                           
                                           
                                           ;	code size estimation:
                                           ;	  879+    0 =   879 instructions ( 1758 byte)
                                           
                                           	end
                                           ;--------------------------------------------------------
                                           ; File Created by SN-SDCC : SinoMCU ANSI-C Compiler
                                           ; Version 2.0.0 (Dec 11 2019) (MINGW32)
                                           ; This file was generated Fri Jul 03 18:00:07 2026
                                           ;--------------------------------------------------------
                                           ; MC32 port for the RISC core
                                           ;--------------------------------------------------------
                                           ;	.file	"MC32F7361.c"
                                           	list	p=7361
                                           	radix dec
                                           	include "7361.inc"
                                           ;--------------------------------------------------------
                                           ; external declarations
                                           ;--------------------------------------------------------
                                           	extern	_INDF0bits
                                           	extern	_INDF1bits
                                           	extern	_INDF2bits
                                           	extern	_HIBYTEbits
                                           	extern	_FSR0bits
                                           	extern	_FSR1bits
                                           	extern	_PCLbits
                                           	extern	_PFLAGbits
                                           	extern	_MCRbits
                                           	extern	_INDF3bits
                                           	extern	_INTEbits
                                           	extern	_INTFbits
                                           	extern	_DRVCRbits
                                           	extern	_P0KBCRbits
                                           	extern	_P1KBCRbits
                                           	extern	_P2KBCRbits
                                           	extern	_IOP0bits
                                           	extern	_OEP0bits
                                           	extern	_PUP0bits
                                           	extern	_PDP0bits
                                           	extern	_IOP1bits
                                           	extern	_OEP1bits
                                           	extern	_PUP1bits
                                           	extern	_PDP1bits
                                           	extern	_T0CRbits
                                           	extern	_T0CNTbits
                                           	extern	_T0LOADbits
                                           	extern	_T0DATAbits
                                           	extern	_T1CRbits
                                           	extern	_T1CNTbits
                                           	extern	_T1LOADbits
                                           	extern	_T1DATAbits
                                           	extern	_T2CRbits
                                           	extern	_T2CNTbits
                                           	extern	_T2LOADbits
                                           	extern	_T2DATAbits
                                           	extern	_T3CRbits
                                           	extern	_T3CNTbits
                                           	extern	_T3LOADbits
                                           	extern	_PWM0DRbits
                                           	extern	_PWM1DRbits
                                           	extern	_PWM2DRbits
                                           	extern	_PWMCR0bits
                                           	extern	_PWMCR1bits
                                           	extern	_OSCMRbits
                                           	extern	_LVDCRbits
                                           	extern	_ADCR0bits
                                           	extern	_ADCR1bits
                                           	extern	_ADCR2bits
                                           	extern	_OSADJCRbits
                                           	extern	_ADRHbits
                                           	extern	_ADRLbits
                                           	extern	_P0ADCRbits
                                           	extern	_P1ADCRbits
                                           	extern	_IOP2bits
                                           	extern	_OEP2bits
                                           	extern	_PUP2bits
                                           	extern	_PDP2bits
                                           	extern	_PMODbits
                                           	extern	_PWMCR3bits
                                           	extern	_PWMCR2bits
                                           	extern	_PFRCCRbits
                                           	extern	_PFRCCALbits
                                           	extern	_EECRbits
                                           	extern	_EEPRbits
                                           	extern	_EEARbits
                                           	extern	_EEDRHbits
                                           	extern	_EEDRLbits
                                           	extern	_DBGCRbits
                                           	extern	_DBGPRbits
                                           	extern	_HIRCCALbits
                                           	extern	_INDF0
                                           	extern	_INDF1
                                           	extern	_INDF2
                                           	extern	_HIBYTE
                                           	extern	_FSR0
                                           	extern	_FSR1
                                           	extern	_PCL
                                           	extern	_PFLAG
                                           	extern	_MCR
                                           	extern	_INDF3
                                           	extern	_INTE
                                           	extern	_INTF
                                           	extern	_DRVCR
                                           	extern	_P0KBCR
                                           	extern	_P1KBCR
                                           	extern	_P2KBCR
                                           	extern	_IOP0
                                           	extern	_OEP0
                                           	extern	_PUP0
                                           	extern	_PDP0
                                           	extern	_IOP1
                                           	extern	_OEP1
                                           	extern	_PUP1
                                           	extern	_PDP1
                                           	extern	_T0CR
                                           	extern	_T0CNT
                                           	extern	_T0LOAD
                                           	extern	_T0DATA
                                           	extern	_T1CR
                                           	extern	_T1CNT
                                           	extern	_T1LOAD
                                           	extern	_T1DATA
                                           	extern	_T2CR
                                           	extern	_T2CNT
                                           	extern	_T2LOAD
                                           	extern	_T2DATA
                                           	extern	_T3CR
                                           	extern	_T3CNT
                                           	extern	_T3LOAD
                                           	extern	_PWM0DR
                                           	extern	_PWM1DR
                                           	extern	_PWM2DR
                                           	extern	_PWMCR0
                                           	extern	_PWMCR1
                                           	extern	_OSCMR
                                           	extern	_LVDCR
                                           	extern	_ADCR0
                                           	extern	_ADCR1
                                           	extern	_ADCR2
                                           	extern	_OSADJCR
                                           	extern	_ADRH
                                           	extern	_ADRL
                                           	extern	_P0ADCR
                                           	extern	_P1ADCR
                                           	extern	_IOP2
                                           	extern	_OEP2
                                           	extern	_PUP2
                                           	extern	_PDP2
                                           	extern	_PMOD
                                           	extern	_PWMCR3
                                           	extern	_PWMCR2
                                           	extern	_PFRCCR
                                           	extern	_PFRCCAL
                                           	extern	_EECR
                                           	extern	_EEPR
                                           	extern	_EEAR
                                           	extern	_EEDRH
                                           	extern	_EEDRL
                                           	extern	_DBGCR
                                           	extern	_DBGPR
                                           	extern	_HIRCCAL
                                           ;--------------------------------------------------------
                                           ; global declarations
                                           ;--------------------------------------------------------
                                           	global	_Sys_Init
                                           	global	_IO_Init
                                           	global	_CLR_RAM
                                           	global	_delay_ms
                                           	global	_EEPROM_Write_Byte
                                           	global	_EEPROM_Read_Byte
                                           	global	_delay_10us
                                           	global	_led_mode_handle
                                           	global	_TIMER2_INT_Init
                                           	global	_key_handle
                                           	global	_main
                                           	global	_int_isr
                                           	global	_cur_led_mode
                                           	global	_abuf
                                           	global	_statusbuf
                                           	global	_flag1
                                           	global	_rf_data
                                           	global	_ir_data
                                           
                                           	global STK06
                                           	global STK05
                                           	global STK04
                                           	global STK03
                                           	global STK02
                                           	global STK01
                                           	global STK00
                                           
                                           sharebank udata_ovr 0x0000
                                           STK06	res 1
                                           STK05	res 1
                                           STK04	res 1
                                           STK03	res 1
                                           STK02	res 1
                                           STK01	res 1
                                           STK00	res 1
                                           
                                           ;--------------------------------------------------------
                                           ; global definitions
                                           ;--------------------------------------------------------
                                           UD_MC32F7361_0	udata
                                           _cur_led_mode	res	1
                                           
                                           UD_MC32F7361_1	udata
                                           _abuf	res	1
                                           
                                           UD_MC32F7361_2	udata
                                           _statusbuf	res	1
                                           
                                           UD_MC32F7361_3	udata
                                           _flag1	res	1
                                           
                                           UD_MC32F7361_4	udata
                                           _rf_data	res	1
                                           
                                           UD_MC32F7361_5	udata
                                           _ir_data	res	1
                                           
                                           ;--------------------------------------------------------
                                           ; absolute symbol definitions
                                           ;--------------------------------------------------------
                                           ;--------------------------------------------------------
                                           ; compiler-defined variables
                                           ;--------------------------------------------------------
                                           UDL_MC32F7361_0	udata
                                           r0x1017	res	1
                                           r0x1016	res	1
                                           r0x1018	res	1
                                           r0x1019	res	1
                                           r0x101A	res	1
                                           r0x101B	res	1
                                           r0x101C	res	1
                                           r0x101D	res	1
                                           r0x101E	res	1
                                           r0x101F	res	1
                                           r0x1020	res	1
                                           r0x1022	res	1
                                           r0x1021	res	1
                                           r0x1023	res	1
                                           r0x1024	res	1
                                           _key_handle_tmp_65536_35	res	1
                                           _int_isr_low_level_cnt_131073_57	res	1
                                           _int_isr___rf_data_131073_57	res	4
                                           _int_isr___flag_is_recved_data_131073_57	res	1
                                           _int_isr_flag_is_enable_recv_131073_57	res	1
                                           _int_isr_rf_bit_cnt_131073_57	res	1
                                           _int_isr_high_level_cnt_131073_57	res	1
                                           _int_isr_key_press_cnt_196609_76	res	2
                                           _int_isr_ir_level_cnt_196609_82	res	2
                                           _int_isr___ir_data_196609_82	res	4
                                           ;--------------------------------------------------------
                                           ; initialized data
                                           ;--------------------------------------------------------
                                           
                                           ;@Allocation info for local variables in function 'delay_ms'
                                           ;@delay_ms Sys_Init                  Allocated to registers ;size:2
                                           ;@delay_ms CLR_RAM                   Allocated to registers ;size:2
                                           ;@delay_ms IO_Init                   Allocated to registers ;size:2
                                           ;@delay_ms delay_ms                  Allocated to registers ;size:2
                                           ;@delay_ms INDF0bits                 Allocated to registers ;size:1
                                           ;@delay_ms INDF1bits                 Allocated to registers ;size:1
                                           ;@delay_ms INDF2bits                 Allocated to registers ;size:1
                                           ;@delay_ms HIBYTEbits                Allocated to registers ;size:1
                                           ;@delay_ms FSR0bits                  Allocated to registers ;size:1
                                           ;@delay_ms FSR1bits                  Allocated to registers ;size:1
                                           ;@delay_ms PCLbits                   Allocated to registers ;size:1
                                           ;@delay_ms PFLAGbits                 Allocated to registers ;size:1
                                           ;@delay_ms MCRbits                   Allocated to registers ;size:1
                                           ;@delay_ms INDF3bits                 Allocated to registers ;size:1
                                           ;@delay_ms INTEbits                  Allocated to registers ;size:1
                                           ;@delay_ms INTFbits                  Allocated to registers ;size:1
                                           ;@delay_ms DRVCRbits                 Allocated to registers ;size:1
                                           ;@delay_ms P0KBCRbits                Allocated to registers ;size:1
                                           ;@delay_ms P1KBCRbits                Allocated to registers ;size:1
                                           ;@delay_ms P2KBCRbits                Allocated to registers ;size:1
                                           ;@delay_ms IOP0bits                  Allocated to registers ;size:1
                                           ;@delay_ms OEP0bits                  Allocated to registers ;size:1
                                           ;@delay_ms PUP0bits                  Allocated to registers ;size:1
                                           ;@delay_ms PDP0bits                  Allocated to registers ;size:1
                                           ;@delay_ms IOP1bits                  Allocated to registers ;size:1
                                           ;@delay_ms OEP1bits                  Allocated to registers ;size:1
                                           ;@delay_ms PUP1bits                  Allocated to registers ;size:1
                                           ;@delay_ms PDP1bits                  Allocated to registers ;size:1
                                           ;@delay_ms T0CRbits                  Allocated to registers ;size:1
                                           ;@delay_ms T0CNTbits                 Allocated to registers ;size:1
                                           ;@delay_ms T0LOADbits                Allocated to registers ;size:1
                                           ;@delay_ms T0DATAbits                Allocated to registers ;size:1
                                           ;@delay_ms T1CRbits                  Allocated to registers ;size:1
                                           ;@delay_ms T1CNTbits                 Allocated to registers ;size:1
                                           ;@delay_ms T1LOADbits                Allocated to registers ;size:1
                                           ;@delay_ms T1DATAbits                Allocated to registers ;size:1
                                           ;@delay_ms T2CRbits                  Allocated to registers ;size:1
                                           ;@delay_ms T2CNTbits                 Allocated to registers ;size:1
                                           ;@delay_ms T2LOADbits                Allocated to registers ;size:1
                                           ;@delay_ms T2DATAbits                Allocated to registers ;size:1
                                           ;@delay_ms T3CRbits                  Allocated to registers ;size:1
                                           ;@delay_ms T3CNTbits                 Allocated to registers ;size:1
                                           ;@delay_ms T3LOADbits                Allocated to registers ;size:1
                                           ;@delay_ms PWM0DRbits                Allocated to registers ;size:1
                                           ;@delay_ms PWM1DRbits                Allocated to registers ;size:1
                                           ;@delay_ms PWM2DRbits                Allocated to registers ;size:1
                                           ;@delay_ms PWMCR0bits                Allocated to registers ;size:1
                                           ;@delay_ms PWMCR1bits                Allocated to registers ;size:1
                                           ;@delay_ms OSCMRbits                 Allocated to registers ;size:1
                                           ;@delay_ms LVDCRbits                 Allocated to registers ;size:1
                                           ;@delay_ms ADCR0bits                 Allocated to registers ;size:1
                                           ;@delay_ms ADCR1bits                 Allocated to registers ;size:1
                                           ;@delay_ms ADCR2bits                 Allocated to registers ;size:1
                                           ;@delay_ms OSADJCRbits               Allocated to registers ;size:1
                                           ;@delay_ms ADRHbits                  Allocated to registers ;size:1
                                           ;@delay_ms ADRLbits                  Allocated to registers ;size:1
                                           ;@delay_ms P0ADCRbits                Allocated to registers ;size:1
                                           ;@delay_ms P1ADCRbits                Allocated to registers ;size:1
                                           ;@delay_ms IOP2bits                  Allocated to registers ;size:1
                                           ;@delay_ms OEP2bits                  Allocated to registers ;size:1
                                           ;@delay_ms PUP2bits                  Allocated to registers ;size:1
                                           ;@delay_ms PDP2bits                  Allocated to registers ;size:1
                                           ;@delay_ms PMODbits                  Allocated to registers ;size:1
                                           ;@delay_ms PWMCR3bits                Allocated to registers ;size:1
                                           ;@delay_ms PWMCR2bits                Allocated to registers ;size:1
                                           ;@delay_ms PFRCCRbits                Allocated to registers ;size:1
                                           ;@delay_ms PFRCCALbits               Allocated to registers ;size:1
                                           ;@delay_ms EECRbits                  Allocated to registers ;size:1
                                           ;@delay_ms EEPRbits                  Allocated to registers ;size:1
                                           ;@delay_ms EEARbits                  Allocated to registers ;size:1
                                           ;@delay_ms EEDRHbits                 Allocated to registers ;size:1
                                           ;@delay_ms EEDRLbits                 Allocated to registers ;size:1
                                           ;@delay_ms DBGCRbits                 Allocated to registers ;size:1
                                           ;@delay_ms DBGPRbits                 Allocated to registers ;size:1
                                           ;@delay_ms HIRCCALbits               Allocated to registers ;size:1
                                           ;@delay_ms cur_led_mode              Allocated to registers ;size:1
                                           ;@delay_ms abuf                      Allocated to registers ;size:1
                                           ;@delay_ms statusbuf                 Allocated to registers ;size:1
                                           ;@delay_ms flag1                     Allocated to registers ;size:1
                                           ;@delay_ms rf_data                   Allocated to registers ;size:1
                                           ;@delay_ms ir_data                   Allocated to registers ;size:1
                                           ;@delay_ms xms                       Allocated to registers ;size:2
                                           ;@delay_ms i                         Allocated to registers r0x1018 r0x1019 ;size:2
                                           ;@delay_ms INDF0                     Allocated to registers ;size:1
                                           ;@delay_ms INDF1                     Allocated to registers ;size:1
                                           ;@delay_ms INDF2                     Allocated to registers ;size:1
                                           ;@delay_ms HIBYTE                    Allocated to registers ;size:1
                                           ;@delay_ms FSR0                      Allocated to registers ;size:1
                                           ;@delay_ms FSR1                      Allocated to registers ;size:1
                                           ;@delay_ms PCL                       Allocated to registers ;size:1
                                           ;@delay_ms PFLAG                     Allocated to registers ;size:1
                                           ;@delay_ms MCR                       Allocated to registers ;size:1
                                           ;@delay_ms INDF3                     Allocated to registers ;size:1
                                           ;@delay_ms INTE                      Allocated to registers ;size:1
                                           ;@delay_ms INTF                      Allocated to registers ;size:1
                                           ;@delay_ms DRVCR                     Allocated to registers ;size:1
                                           ;@delay_ms P0KBCR                    Allocated to registers ;size:1
                                           ;@delay_ms P1KBCR                    Allocated to registers ;size:1
                                           ;@delay_ms P2KBCR                    Allocated to registers ;size:1
                                           ;@delay_ms IOP0                      Allocated to registers ;size:1
                                           ;@delay_ms OEP0                      Allocated to registers ;size:1
                                           ;@delay_ms PUP0                      Allocated to registers ;size:1
                                           ;@delay_ms PDP0                      Allocated to registers ;size:1
                                           ;@delay_ms IOP1                      Allocated to registers ;size:1
                                           ;@delay_ms OEP1                      Allocated to registers ;size:1
                                           ;@delay_ms PUP1                      Allocated to registers ;size:1
                                           ;@delay_ms PDP1                      Allocated to registers ;size:1
                                           ;@delay_ms T0CR                      Allocated to registers ;size:1
                                           ;@delay_ms T0CNT                     Allocated to registers ;size:1
                                           ;@delay_ms T0LOAD                    Allocated to registers ;size:1
                                           ;@delay_ms T0DATA                    Allocated to registers ;size:1
                                           ;@delay_ms T1CR                      Allocated to registers ;size:1
                                           ;@delay_ms T1CNT                     Allocated to registers ;size:1
                                           ;@delay_ms T1LOAD                    Allocated to registers ;size:1
                                           ;@delay_ms T1DATA                    Allocated to registers ;size:1
                                           ;@delay_ms T2CR                      Allocated to registers ;size:1
                                           ;@delay_ms T2CNT                     Allocated to registers ;size:1
                                           ;@delay_ms T2LOAD                    Allocated to registers ;size:1
                                           ;@delay_ms T2DATA                    Allocated to registers ;size:1
                                           ;@delay_ms T3CR                      Allocated to registers ;size:1
                                           ;@delay_ms T3CNT                     Allocated to registers ;size:1
                                           ;@delay_ms T3LOAD                    Allocated to registers ;size:1
                                           ;@delay_ms PWM0DR                    Allocated to registers ;size:1
                                           ;@delay_ms PWM1DR                    Allocated to registers ;size:1
                                           ;@delay_ms PWM2DR                    Allocated to registers ;size:1
                                           ;@delay_ms PWMCR0                    Allocated to registers ;size:1
                                           ;@delay_ms PWMCR1                    Allocated to registers ;size:1
                                           ;@delay_ms OSCMR                     Allocated to registers ;size:1
                                           ;@delay_ms LVDCR                     Allocated to registers ;size:1
                                           ;@delay_ms ADCR0                     Allocated to registers ;size:1
                                           ;@delay_ms ADCR1                     Allocated to registers ;size:1
                                           ;@delay_ms ADCR2                     Allocated to registers ;size:1
                                           ;@delay_ms OSADJCR                   Allocated to registers ;size:1
                                           ;@delay_ms ADRH                      Allocated to registers ;size:1
                                           ;@delay_ms ADRL                      Allocated to registers ;size:1
                                           ;@delay_ms P0ADCR                    Allocated to registers ;size:1
                                           ;@delay_ms P1ADCR                    Allocated to registers ;size:1
                                           ;@delay_ms IOP2                      Allocated to registers ;size:1
                                           ;@delay_ms OEP2                      Allocated to registers ;size:1
                                           ;@delay_ms PUP2                      Allocated to registers ;size:1
                                           ;@delay_ms PDP2                      Allocated to registers ;size:1
                                           ;@delay_ms PMOD                      Allocated to registers ;size:1
                                           ;@delay_ms PWMCR3                    Allocated to registers ;size:1
                                           ;@delay_ms PWMCR2                    Allocated to registers ;size:1
                                           ;@delay_ms PFRCCR                    Allocated to registers ;size:1
                                           ;@delay_ms PFRCCAL                   Allocated to registers ;size:1
                                           ;@delay_ms EECR                      Allocated to registers ;size:1
                                           ;@delay_ms EEPR                      Allocated to registers ;size:1
                                           ;@delay_ms EEAR                      Allocated to registers ;size:1
                                           ;@delay_ms EEDRH                     Allocated to registers ;size:1
                                           ;@delay_ms EEDRL                     Allocated to registers ;size:1
                                           ;@delay_ms DBGCR                     Allocated to registers ;size:1
                                           ;@delay_ms DBGPR                     Allocated to registers ;size:1
                                           ;@delay_ms HIRCCAL                   Allocated to registers ;size:1
                                           ;@end Allocation info for local variables in function 'delay_ms';
                                           ;@Allocation info for local variables in function 'EEPROM_Write_Byte'
                                           ;@EEPROM_Write_Byte data                      Allocated to registers r0x1017 r0x1016 ;size:2
                                           ;@EEPROM_Write_Byte addr                      Allocated to registers ;size:1
                                           ;@end Allocation info for local variables in function 'EEPROM_Write_Byte';
                                           ;@Allocation info for local variables in function 'EEPROM_Read_Byte'
                                           ;@EEPROM_Read_Byte addr                      Allocated to registers ;size:1
                                           ;@EEPROM_Read_Byte EEDR                      Allocated to registers r0x1019 r0x1018 ;size:2
                                           ;@end Allocation info for local variables in function 'EEPROM_Read_Byte';
                                           ;@Allocation info for local variables in function 'delay_10us'
                                           ;@delay_10us x_10us                    Allocated to registers ;size:2
                                           ;@delay_10us i                         Allocated to registers r0x1018 ;size:1
                                           ;@end Allocation info for local variables in function 'delay_10us';
                                           ;@Allocation info for local variables in function 'led_mode_handle'
                                           ;@led_mode_handle period                    Allocated to registers r0x101C ;size:1
                                           ;@led_mode_handle i                         Allocated to registers r0x101D ;size:1
                                           ;@led_mode_handle j                         Allocated to registers r0x101E ;size:1
                                           ;@end Allocation info for local variables in function 'led_mode_handle';
                                           ;@Allocation info for local variables in function 'CLR_RAM'
                                           ;@end Allocation info for local variables in function 'CLR_RAM';
                                           ;@Allocation info for local variables in function 'IO_Init'
                                           ;@end Allocation info for local variables in function 'IO_Init';
                                           ;@Allocation info for local variables in function 'TIMER2_INT_Init'
                                           ;@end Allocation info for local variables in function 'TIMER2_INT_Init';
                                           ;@Allocation info for local variables in function 'Sys_Init'
                                           ;@end Allocation info for local variables in function 'Sys_Init';
                                           ;@Allocation info for local variables in function 'key_handle'
                                           ;@key_handle key_type                  Allocated to registers r0x1020 ;size:1
                                           ;@key_handle key                       Allocated to registers r0x101F ;size:1
                                           ;@key_handle tmp                       Allocated to registers ;size:1
                                           ;@end Allocation info for local variables in function 'key_handle';
                                           ;@Allocation info for local variables in function 'main'
                                           ;@main tmp                       Allocated to registers r0x1022 r0x1021 ;size:2
                                           ;@end Allocation info for local variables in function 'main';
                                           ;@Allocation info for local variables in function 'int_isr'
                                           ;@int_isr rf_bit_cnt                Allocated to registers ;size:1
                                           ;@int_isr __rf_data                 Allocated to registers ;size:4
                                           ;@int_isr flag_is_enable_recv       Allocated to registers ;size:1
                                           ;@int_isr __flag_is_recved_data     Allocated to registers ;size:1
                                           ;@int_isr low_level_cnt             Allocated to registers ;size:1
                                           ;@int_isr high_level_cnt            Allocated to registers ;size:1
                                           ;@int_isr key_press_cnt             Allocated to registers ;size:2
                                           ;@int_isr ir_level_cnt              Allocated to registers ;size:2
                                           ;@int_isr __ir_data                 Allocated to registers ;size:4
                                           ;@end Allocation info for local variables in function 'int_isr';
                                           
                                           ;--------------------------------------------------------
                                           ; overlayable items in internal ram 
                                           ;--------------------------------------------------------
                                           ;	udata_ovr
                                           ;--------------------------------------------------------
                                           ; reset vector 
                                           ;--------------------------------------------------------
                                           STARTUP	code 0x0000
                                           	goto	_main
                                           ;--------------------------------------------------------
                                           ; interrupt and initialization code
                                           ;--------------------------------------------------------
                                           c_interrupt	code	0x8
                                           __sdcc_interrupt
                                           ;***
                                           ;  pBlock Stats: dbName = I
                                           ;***
                                           ;entry:  _int_isr	;Function start
                                           ; 0 exit points
                                           ;2 compiler assigned registers:
                                           ;   r0x1023
                                           ;   r0x1024
                                           ;; Starting pCode block
                                           _int_isr	;Function start
                                           ; 0 exit points
                                           ;	.line	448; "MC32F7361.c"	__endasm;
                                           	;
                                           	movra	_abuf;
                                           	swapar	_PFLAG;
                                           	movra	_statusbuf;
                                           	
                                           ;	.line	450; "MC32F7361.c"	if (T2IF & T2IE)
                                           	CLRR	r0x1023
                                           	JBCLR	_INTFbits,5
                                           	INCR	r0x1023
                                           	CLRR	r0x1024
                                           	JBCLR	_INTEbits,5
                                           	INCR	r0x1024
                                           	MOVAR	r0x1024
                                           	ANDRA	r0x1023
                                           	MOVAI	0x00
                                           	ORAR	r0x1023
                                           	JBCLR	PFLAG,2
                                           	GOTO	_00494_DS_
                                           ;	.line	452; "MC32F7361.c"	T2IF = 0;
                                           	BCLR	_INTFbits,5
                                           ;	.line	467; "MC32F7361.c"	if (0 == RFIN_PIN)
                                           	JBCLR	_IOP1bits,3
                                           	GOTO	_00446_DS_
                                           ;	.line	470; "MC32F7361.c"	low_level_cnt++;
                                           	INCR	_int_isr_low_level_cnt_131073_57
                                           ;;unsigned compare: left < lit(0x1E=30), size=1
                                           ;	.line	475; "MC32F7361.c"	if (low_level_cnt >= 30 && rf_bit_cnt == 23) // ČçąűµÍµçĆ˝´óÓÚ3000usŁ¬˛˘ÇŇŇŃľ­˝ÓĘŐÁË23Î»ĘýľÝ
                                           	MOVAI	0x1e
                                           	RSUBAR	_int_isr_low_level_cnt_131073_57
                                           	JBSET	PFLAG,0
                                           	GOTO	_00447_DS_
                                           ;;genSkipc:3291: created from rifx:013B5EFC
                                           	MOVAR	_int_isr_rf_bit_cnt_131073_57
                                           	XORAI	0x17
                                           	JBSET	PFLAG,2
                                           	GOTO	_00447_DS_
                                           ;;unsigned compare: left < lit(0x6=6), size=1
                                           ;	.line	477; "MC32F7361.c"	if (high_level_cnt >= 6 && high_level_cnt < 20)
                                           	MOVAI	0x06
                                           	RSUBAR	_int_isr_high_level_cnt_131073_57
                                           	JBSET	PFLAG,0
                                           	GOTO	_00411_DS_
                                           ;;genSkipc:3291: created from rifx:013B5EFC
                                           ;;unsigned compare: left < lit(0x14=20), size=1
                                           	MOVAI	0x14
                                           	RSUBAR	_int_isr_high_level_cnt_131073_57
                                           	JBCLR	PFLAG,0
                                           	GOTO	_00411_DS_
                                           ;;genSkipc:3291: created from rifx:013B5EFC
                                           ;	.line	479; "MC32F7361.c"	__rf_data |= 0x01;
                                           	BSET	_int_isr___rf_data_131073_57,0
                                           	GOTO	_00412_DS_
                                           ;;unsigned compare: left < lit(0x1=1), size=1
                                           _00411_DS_
                                           ;	.line	481; "MC32F7361.c"	else if (high_level_cnt >= 1 && high_level_cnt < 6)
                                           	MOVAI	0x01
                                           	RSUBAR	_int_isr_high_level_cnt_131073_57
                                           	JBSET	PFLAG,0
                                           	GOTO	_00412_DS_
                                           ;;genSkipc:3291: created from rifx:013B5EFC
                                           _00412_DS_
                                           ;	.line	485; "MC32F7361.c"	__flag_is_recved_data = 1; // ˝ÓĘŐÍęłÉ±ęÖľÎ»ÖĂŇ»
                                           	MOVAI	0x01
                                           	MOVRA	_int_isr___flag_is_recved_data_131073_57
                                           ;	.line	486; "MC32F7361.c"	flag_is_enable_recv = 0;
                                           	CLRR	_int_isr_flag_is_enable_recv_131073_57
                                           	GOTO	_00447_DS_
                                           _00446_DS_
                                           ;	.line	491; "MC32F7361.c"	if (low_level_cnt > 0)
                                           	MOVAI	0x00
                                           	ORAR	_int_isr_low_level_cnt_131073_57
                                           	JBCLR	PFLAG,2
                                           	GOTO	_00443_DS_
                                           ;;swapping arguments (AOP_TYPEs 1/3)
                                           ;;unsigned compare: left >= lit(0x33=51), size=1
                                           ;	.line	494; "MC32F7361.c"	if (low_level_cnt > 50)
                                           	MOVAI	0x33
                                           	RSUBAR	_int_isr_low_level_cnt_131073_57
                                           	JBSET	PFLAG,0
                                           	GOTO	_00436_DS_
                                           ;;genSkipc:3291: created from rifx:013B5EFC
                                           ;	.line	497; "MC32F7361.c"	__rf_data = 0;  // Çĺłý˝ÓĘŐµÄĘýľÝÖˇ
                                           	CLRR	_int_isr___rf_data_131073_57
                                           	CLRR	(_int_isr___rf_data_131073_57 + 1)
                                           	CLRR	(_int_isr___rf_data_131073_57 + 2)
                                           	CLRR	(_int_isr___rf_data_131073_57 + 3)
                                           ;	.line	498; "MC32F7361.c"	rf_bit_cnt = 0; // ÇĺłýÓĂŔ´ĽÇÂĽ˝ÓĘŐµÄĘýľÝÎ»Ęý
                                           	CLRR	_int_isr_rf_bit_cnt_131073_57
                                           ;	.line	500; "MC32F7361.c"	flag_is_enable_recv = 1;
                                           	MOVAI	0x01
                                           	MOVRA	_int_isr_flag_is_enable_recv_131073_57
                                           	GOTO	_00437_DS_
                                           _00436_DS_
                                           ;	.line	502; "MC32F7361.c"	else if (flag_is_enable_recv &&
                                           	MOVAI	0x00
                                           	ORAR	_int_isr_flag_is_enable_recv_131073_57
                                           	JBCLR	PFLAG,2
                                           	GOTO	_00429_DS_
                                           ;;unsigned compare: left < lit(0x2=2), size=1
                                           ;	.line	503; "MC32F7361.c"	low_level_cnt >= 2 && low_level_cnt < 7 &&
                                           	MOVAI	0x02
                                           	RSUBAR	_int_isr_low_level_cnt_131073_57
                                           	JBSET	PFLAG,0
                                           	GOTO	_00429_DS_
                                           ;;genSkipc:3291: created from rifx:013B5EFC
                                           ;;unsigned compare: left < lit(0x7=7), size=1
                                           	MOVAI	0x07
                                           	RSUBAR	_int_isr_low_level_cnt_131073_57
                                           	JBCLR	PFLAG,0
                                           	GOTO	_00429_DS_
                                           ;;genSkipc:3291: created from rifx:013B5EFC
                                           ;;unsigned compare: left < lit(0x6=6), size=1
                                           ;	.line	504; "MC32F7361.c"	high_level_cnt >= 6 && high_level_cnt < 20)
                                           	MOVAI	0x06
                                           	RSUBAR	_int_isr_high_level_cnt_131073_57
                                           	JBSET	PFLAG,0
                                           	GOTO	_00429_DS_
                                           ;;genSkipc:3291: created from rifx:013B5EFC
                                           ;;unsigned compare: left < lit(0x14=20), size=1
                                           	MOVAI	0x14
                                           	RSUBAR	_int_isr_high_level_cnt_131073_57
                                           	JBCLR	PFLAG,0
                                           	GOTO	_00429_DS_
                                           ;;genSkipc:3291: created from rifx:013B5EFC
                                           ;	.line	507; "MC32F7361.c"	__rf_data |= 0x01;
                                           	BSET	_int_isr___rf_data_131073_57,0
                                           ;	.line	508; "MC32F7361.c"	rf_bit_cnt++;
                                           	INCR	_int_isr_rf_bit_cnt_131073_57
                                           ;	.line	509; "MC32F7361.c"	if (rf_bit_cnt != 24)
                                           	MOVAR	_int_isr_rf_bit_cnt_131073_57
                                           	XORAI	0x18
                                           	JBSET	PFLAG,2
                                           	GOTO	_00677_DS_
                                           	GOTO	_00437_DS_
                                           _00677_DS_
                                           ;	.line	511; "MC32F7361.c"	__rf_data <<= 1; // ÓĂÓÚ´ć·Ĺ˝ÓĘŐ24Î»ĘýľÝµÄ±äÁż×óŇĆŇ»Î»
                                           	BCLR	PFLAG,0
                                           	RLR	_int_isr___rf_data_131073_57
                                           	RLR	(_int_isr___rf_data_131073_57 + 1)
                                           	RLR	(_int_isr___rf_data_131073_57 + 2)
                                           	RLR	(_int_isr___rf_data_131073_57 + 3)
                                           	GOTO	_00437_DS_
                                           _00429_DS_
                                           ;	.line	514; "MC32F7361.c"	else if (flag_is_enable_recv &&
                                           	MOVAI	0x00
                                           	ORAR	_int_isr_flag_is_enable_recv_131073_57
                                           	JBCLR	PFLAG,2
                                           	GOTO	_00422_DS_
                                           ;;unsigned compare: left < lit(0x7=7), size=1
                                           ;	.line	515; "MC32F7361.c"	low_level_cnt >= 7 && low_level_cnt < 20 &&
                                           	MOVAI	0x07
                                           	RSUBAR	_int_isr_low_level_cnt_131073_57
                                           	JBSET	PFLAG,0
                                           	GOTO	_00422_DS_
                                           ;;genSkipc:3291: created from rifx:013B5EFC
                                           ;;unsigned compare: left < lit(0x14=20), size=1
                                           	MOVAI	0x14
                                           	RSUBAR	_int_isr_low_level_cnt_131073_57
                                           	JBCLR	PFLAG,0
                                           	GOTO	_00422_DS_
                                           ;;genSkipc:3291: created from rifx:013B5EFC
                                           ;;unsigned compare: left < lit(0x1=1), size=1
                                           ;	.line	516; "MC32F7361.c"	high_level_cnt >= 1 && high_level_cnt < 6)
                                           	MOVAI	0x01
                                           	RSUBAR	_int_isr_high_level_cnt_131073_57
                                           	JBSET	PFLAG,0
                                           	GOTO	_00422_DS_
                                           ;;genSkipc:3291: created from rifx:013B5EFC
                                           ;;unsigned compare: left < lit(0x6=6), size=1
                                           	MOVAI	0x06
                                           	RSUBAR	_int_isr_high_level_cnt_131073_57
                                           	JBCLR	PFLAG,0
                                           	GOTO	_00422_DS_
                                           ;;genSkipc:3291: created from rifx:013B5EFC
                                           ;	.line	519; "MC32F7361.c"	__rf_data &= ~1;
                                           	BCLR	_int_isr___rf_data_131073_57,0
                                           ;	.line	520; "MC32F7361.c"	rf_bit_cnt++;
                                           	INCR	_int_isr_rf_bit_cnt_131073_57
                                           ;	.line	521; "MC32F7361.c"	if (rf_bit_cnt != 24)
                                           	MOVAR	_int_isr_rf_bit_cnt_131073_57
                                           	XORAI	0x18
                                           	JBSET	PFLAG,2
                                           	GOTO	_00682_DS_
                                           	GOTO	_00437_DS_
                                           _00682_DS_
                                           ;	.line	523; "MC32F7361.c"	__rf_data <<= 1; // ÓĂÓÚ´ć·Ĺ˝ÓĘŐ24Î»ĘýľÝµÄ±äÁż×óŇĆŇ»Î»
                                           	BCLR	PFLAG,0
                                           	RLR	_int_isr___rf_data_131073_57
                                           	RLR	(_int_isr___rf_data_131073_57 + 1)
                                           	RLR	(_int_isr___rf_data_131073_57 + 2)
                                           	RLR	(_int_isr___rf_data_131073_57 + 3)
                                           	GOTO	_00437_DS_
                                           _00422_DS_
                                           ;	.line	529; "MC32F7361.c"	__rf_data = 0;
                                           	CLRR	_int_isr___rf_data_131073_57
                                           	CLRR	(_int_isr___rf_data_131073_57 + 1)
                                           	CLRR	(_int_isr___rf_data_131073_57 + 2)
                                           	CLRR	(_int_isr___rf_data_131073_57 + 3)
                                           ;	.line	530; "MC32F7361.c"	rf_bit_cnt = 0;
                                           	CLRR	_int_isr_rf_bit_cnt_131073_57
                                           ;	.line	531; "MC32F7361.c"	flag_is_enable_recv = 0;
                                           	CLRR	_int_isr_flag_is_enable_recv_131073_57
                                           _00437_DS_
                                           ;	.line	534; "MC32F7361.c"	low_level_cnt = 0; // ÎŢÂŰĘÇ·ń˝ÓĘŐµ˝Ň»Î»ĘýľÝŁ¬Óöµ˝¸ßµçĆ˝Ę±Ł¬ĎČÇĺłýÖ®Ç°µÄĽĆĘýÖµ
                                           	CLRR	_int_isr_low_level_cnt_131073_57
                                           ;	.line	535; "MC32F7361.c"	high_level_cnt = 0;
                                           	CLRR	_int_isr_high_level_cnt_131073_57
                                           ;	.line	537; "MC32F7361.c"	if (24 == rf_bit_cnt)
                                           	MOVAR	_int_isr_rf_bit_cnt_131073_57
                                           	XORAI	0x18
                                           	JBSET	PFLAG,2
                                           	GOTO	_00444_DS_
                                           ;	.line	540; "MC32F7361.c"	__flag_is_recved_data = 1; // ˝ÓĘŐÍęłÉ±ęÖľÎ»ÖĂŇ»
                                           	MOVAI	0x01
                                           	MOVRA	_int_isr___flag_is_recved_data_131073_57
                                           ;	.line	541; "MC32F7361.c"	flag_is_enable_recv = 0;
                                           	CLRR	_int_isr_flag_is_enable_recv_131073_57
                                           	GOTO	_00444_DS_
                                           _00443_DS_
                                           ;	.line	548; "MC32F7361.c"	if (0 == flag_is_enable_recv)
                                           	MOVAI	0x00
                                           	ORAR	_int_isr_flag_is_enable_recv_131073_57
                                           	JBSET	PFLAG,2
                                           	GOTO	_00444_DS_
                                           ;	.line	550; "MC32F7361.c"	__rf_data = 0;
                                           	CLRR	_int_isr___rf_data_131073_57
                                           	CLRR	(_int_isr___rf_data_131073_57 + 1)
                                           	CLRR	(_int_isr___rf_data_131073_57 + 2)
                                           	CLRR	(_int_isr___rf_data_131073_57 + 3)
                                           ;	.line	551; "MC32F7361.c"	rf_bit_cnt = 0;
                                           	CLRR	_int_isr_rf_bit_cnt_131073_57
                                           ;	.line	552; "MC32F7361.c"	flag_is_enable_recv = 0;
                                           	CLRR	_int_isr_flag_is_enable_recv_131073_57
                                           _00444_DS_
                                           ;	.line	557; "MC32F7361.c"	high_level_cnt++;
                                           	INCR	_int_isr_high_level_cnt_131073_57
                                           _00447_DS_
                                           ;	.line	560; "MC32F7361.c"	if (__flag_is_recved_data) //
                                           	MOVAI	0x00
                                           	ORAR	_int_isr___flag_is_recved_data_131073_57
                                           	JBCLR	PFLAG,2
                                           	GOTO	_00452_DS_
                                           ;	.line	562; "MC32F7361.c"	rf_bit_cnt = 0;
                                           	CLRR	_int_isr_rf_bit_cnt_131073_57
                                           ;	.line	563; "MC32F7361.c"	__flag_is_recved_data = 0;
                                           	CLRR	_int_isr___flag_is_recved_data_131073_57
                                           ;	.line	564; "MC32F7361.c"	low_level_cnt = 0;
                                           	CLRR	_int_isr_low_level_cnt_131073_57
                                           ;	.line	565; "MC32F7361.c"	high_level_cnt = 0;
                                           	CLRR	_int_isr_high_level_cnt_131073_57
                                           ;	.line	568; "MC32F7361.c"	if (0 == flag_is_recved_data) /* ČçąűÖ®Ç°Î´˝ÓĘŐµ˝ĘýľÝ »ňĘÇ ŇŃľ­´¦ŔíÍęÉĎŇ»´Î˝ÓĘŐµ˝µÄĘýľÝ */
                                           	JBCLR	_flag1,0
                                           	GOTO	_00449_DS_
                                           ;	.line	572; "MC32F7361.c"	rf_data = __rf_data;
                                           	MOVAR	_int_isr___rf_data_131073_57
                                           	MOVRA	_rf_data
                                           ;	.line	573; "MC32F7361.c"	flag_is_recved_data = 1;
                                           	BSET	_flag1,0
                                           	GOTO	_00452_DS_
                                           _00449_DS_
                                           ;	.line	577; "MC32F7361.c"	__rf_data = 0;
                                           	CLRR	_int_isr___rf_data_131073_57
                                           	CLRR	(_int_isr___rf_data_131073_57 + 1)
                                           	CLRR	(_int_isr___rf_data_131073_57 + 2)
                                           	CLRR	(_int_isr___rf_data_131073_57 + 3)
                                           _00452_DS_
                                           ;	.line	591; "MC32F7361.c"	if (0 == MECHANICAL_KEYING_PIN)
                                           	JBCLR	_IOP1bits,6
                                           	GOTO	_00462_DS_
                                           ;	.line	593; "MC32F7361.c"	if (key_press_cnt == 10000) // ł¤°´
                                           	MOVAR	_int_isr_key_press_cnt_196609_76
                                           	XORAI	0x10
                                           	JBSET	PFLAG,2
                                           	GOTO	_00456_DS_
                                           	MOVAR	(_int_isr_key_press_cnt_196609_76 + 1)
                                           	XORAI	0x27
                                           	JBSET	PFLAG,2
                                           	GOTO	_00456_DS_
                                           ;	.line	595; "MC32F7361.c"	rf_data = KEY_OFF;
                                           	MOVAI	0x03
                                           	MOVRA	_rf_data
                                           ;	.line	596; "MC32F7361.c"	flag_is_recved_data = 1;
                                           	BSET	_flag1,0
                                           	GOTO	_00463_DS_
                                           ;;unsigned compare: left < lit(0x2710=10000), size=2
                                           _00456_DS_
                                           ;	.line	598; "MC32F7361.c"	else if (key_press_cnt < 10000)
                                           	MOVAI	0x27
                                           	RSUBAR	(_int_isr_key_press_cnt_196609_76 + 1)
                                           	JBSET	PFLAG,2
                                           	GOTO	_00683_DS_
                                           	MOVAI	0x10
                                           	RSUBAR	_int_isr_key_press_cnt_196609_76
                                           _00683_DS_
                                           	JBCLR	PFLAG,0
                                           	GOTO	_00463_DS_
                                           ;;genSkipc:3291: created from rifx:013B5EFC
                                           ;	.line	600; "MC32F7361.c"	key_press_cnt++;
                                           	INCR	_int_isr_key_press_cnt_196609_76
                                           	JBCLR	PFLAG,2
                                           	INCR	(_int_isr_key_press_cnt_196609_76 + 1)
                                           	GOTO	_00463_DS_
                                           ;;unsigned compare: left < lit(0x64=100), size=2
                                           _00462_DS_
                                           ;	.line	605; "MC32F7361.c"	if (key_press_cnt >= 100 && key_press_cnt < 10000) // ¶Ě°´
                                           	MOVAI	0x00
                                           	RSUBAR	(_int_isr_key_press_cnt_196609_76 + 1)
                                           	JBSET	PFLAG,2
                                           	GOTO	_00684_DS_
                                           	MOVAI	0x64
                                           	RSUBAR	_int_isr_key_press_cnt_196609_76
                                           _00684_DS_
                                           	JBSET	PFLAG,0
                                           	GOTO	_00459_DS_
                                           ;;genSkipc:3291: created from rifx:013B5EFC
                                           ;;unsigned compare: left < lit(0x2710=10000), size=2
                                           	MOVAI	0x27
                                           	RSUBAR	(_int_isr_key_press_cnt_196609_76 + 1)
                                           	JBSET	PFLAG,2
                                           	GOTO	_00685_DS_
                                           	MOVAI	0x10
                                           	RSUBAR	_int_isr_key_press_cnt_196609_76
                                           _00685_DS_
                                           	JBCLR	PFLAG,0
                                           	GOTO	_00459_DS_
                                           ;;genSkipc:3291: created from rifx:013B5EFC
                                           ;	.line	607; "MC32F7361.c"	rf_data = KEY_MECHANICAL_KEYING;
                                           	MOVAI	0x25
                                           	MOVRA	_rf_data
                                           ;	.line	608; "MC32F7361.c"	flag_is_recved_data = 1;
                                           	BSET	_flag1,0
                                           _00459_DS_
                                           ;	.line	611; "MC32F7361.c"	key_press_cnt = 0;
                                           	CLRR	_int_isr_key_press_cnt_196609_76
                                           	CLRR	(_int_isr_key_press_cnt_196609_76 + 1)
                                           ;;swapping arguments (AOP_TYPEs 1/3)
                                           ;;unsigned compare: left >= lit(0x515=1301), size=2
                                           _00463_DS_
                                           ;	.line	625; "MC32F7361.c"	if (ir_level_cnt <= 1300)
                                           	MOVAI	0x05
                                           	RSUBAR	(_int_isr_ir_level_cnt_196609_82 + 1)
                                           	JBSET	PFLAG,2
                                           	GOTO	_00686_DS_
                                           	MOVAI	0x15
                                           	RSUBAR	_int_isr_ir_level_cnt_196609_82
                                           _00686_DS_
                                           	JBCLR	PFLAG,0
                                           	GOTO	_00465_DS_
                                           ;;genSkipc:3291: created from rifx:013B5EFC
                                           ;	.line	626; "MC32F7361.c"	ir_level_cnt++;
                                           	INCR	_int_isr_ir_level_cnt_196609_82
                                           	JBCLR	PFLAG,2
                                           	INCR	(_int_isr_ir_level_cnt_196609_82 + 1)
                                           _00465_DS_
                                           ;	.line	641; "MC32F7361.c"	if (IR_RECV_PIN)
                                           	JBSET	_IOP1bits,3
                                           	GOTO	_00491_DS_
                                           ;	.line	643; "MC32F7361.c"	last_level_in_ir_pin = 1; // ±íĘľ˝ÓĘŐµ˝µÄĘÇ¸ßµçĆ˝
                                           	BSET	_flag1,2
                                           ;;swapping arguments (AOP_TYPEs 1/3)
                                           ;;unsigned compare: left >= lit(0x4B1=1201), size=2
                                           ;	.line	646; "MC32F7361.c"	if (ir_level_cnt > 1200) // ł¬Ę±Ę±Ľä(120000us,120ms)
                                           	MOVAI	0x04
                                           	RSUBAR	(_int_isr_ir_level_cnt_196609_82 + 1)
                                           	JBSET	PFLAG,2
                                           	GOTO	_00687_DS_
                                           	MOVAI	0xb1
                                           	RSUBAR	_int_isr_ir_level_cnt_196609_82
                                           _00687_DS_
                                           	JBSET	PFLAG,0
                                           	GOTO	_00494_DS_
                                           ;;genSkipc:3291: created from rifx:013B5EFC
                                           ;	.line	649; "MC32F7361.c"	if (__ir_data != 0) // ł¬Ę±Ł¬ÇŇ˝ÓĘŐµ˝ĘýľÝ(ĎÖÔÚĘÇÔÚÖĐ¶Ď·ţÎńşŻĘýÖĐ°Ń__ir_data×Ô¶ŻÇĺÁă)
                                           	MOVAR	_int_isr___ir_data_196609_82
                                           	ORAR	(_int_isr___ir_data_196609_82 + 1)
                                           	ORAR	(_int_isr___ir_data_196609_82 + 2)
                                           	ORAR	(_int_isr___ir_data_196609_82 + 3)
                                           	JBCLR	PFLAG,2
                                           	GOTO	_00494_DS_
                                           ;	.line	658; "MC32F7361.c"	if (0 == flag_is_recved_data)
                                           	JBCLR	_flag1,0
                                           	GOTO	_00494_DS_
                                           ;	.line	664; "MC32F7361.c"	ir_data = ~__ir_data;
                                           	MOVAR	_int_isr___ir_data_196609_82
                                           	MOVRA	r0x1023
                                           	COMAR	r0x1023
                                           	MOVRA	_ir_data
                                           ;	.line	665; "MC32F7361.c"	__ir_data = 0;
                                           	CLRR	_int_isr___ir_data_196609_82
                                           	CLRR	(_int_isr___ir_data_196609_82 + 1)
                                           	CLRR	(_int_isr___ir_data_196609_82 + 2)
                                           	CLRR	(_int_isr___ir_data_196609_82 + 3)
                                           ;	.line	666; "MC32F7361.c"	flag_is_recved_data = 1;
                                           	BSET	_flag1,0
                                           	GOTO	_00494_DS_
                                           _00491_DS_
                                           ;	.line	677; "MC32F7361.c"	if (last_level_in_ir_pin)
                                           	JBSET	_flag1,2
                                           	GOTO	_00489_DS_
                                           ;;swapping arguments (AOP_TYPEs 1/3)
                                           ;;unsigned compare: left >= lit(0x9=9), size=2
                                           ;	.line	680; "MC32F7361.c"	if (ir_level_cnt <= 8) // ĐˇÓÚ800usŁ¬ËµĂ÷˝ÓĘŐµ˝ÎŢĐ§µÄĘýľÝŁ¬ÖŘĐÂ˝ÓĘŐ
                                           	MOVAI	0x00
                                           	RSUBAR	(_int_isr_ir_level_cnt_196609_82 + 1)
                                           	JBSET	PFLAG,2
                                           	GOTO	_00688_DS_
                                           	MOVAI	0x09
                                           	RSUBAR	_int_isr_ir_level_cnt_196609_82
                                           _00688_DS_
                                           	JBSET	PFLAG,0
                                           	GOTO	_00487_DS_
                                           ;;genSkipc:3291: created from rifx:013B5EFC
                                           ;;swapping arguments (AOP_TYPEs 1/3)
                                           ;;unsigned compare: left >= lit(0x13=19), size=2
                                           ;	.line	683; "MC32F7361.c"	else if (ir_level_cnt <= 18) // ĐˇÓÚ1800us,ËµĂ÷˝ÓĘŐµ˝ÁËÂßĽ­0
                                           	MOVAI	0x00
                                           	RSUBAR	(_int_isr_ir_level_cnt_196609_82 + 1)
                                           	JBSET	PFLAG,2
                                           	GOTO	_00689_DS_
                                           	MOVAI	0x13
                                           	RSUBAR	_int_isr_ir_level_cnt_196609_82
                                           _00689_DS_
                                           	JBCLR	PFLAG,0
                                           	GOTO	_00483_DS_
                                           ;;genSkipc:3291: created from rifx:013B5EFC
                                           ;	.line	685; "MC32F7361.c"	__ir_data <<= 1;
                                           	BCLR	PFLAG,0
                                           	RLR	_int_isr___ir_data_196609_82
                                           	RLR	(_int_isr___ir_data_196609_82 + 1)
                                           	RLR	(_int_isr___ir_data_196609_82 + 2)
                                           	RLR	(_int_isr___ir_data_196609_82 + 3)
                                           	GOTO	_00487_DS_
                                           ;;swapping arguments (AOP_TYPEs 1/3)
                                           ;;unsigned compare: left >= lit(0x1B=27), size=2
                                           _00483_DS_
                                           ;	.line	691; "MC32F7361.c"	else if (ir_level_cnt <= 26) // ĐˇÓÚ2600us,ËµĂ÷˝ÓĘŐµ˝ÁËÂßĽ­1
                                           	MOVAI	0x00
                                           	RSUBAR	(_int_isr_ir_level_cnt_196609_82 + 1)
                                           	JBSET	PFLAG,2
                                           	GOTO	_00690_DS_
                                           	MOVAI	0x1b
                                           	RSUBAR	_int_isr_ir_level_cnt_196609_82
                                           _00690_DS_
                                           	JBCLR	PFLAG,0
                                           	GOTO	_00480_DS_
                                           ;;genSkipc:3291: created from rifx:013B5EFC
                                           ;	.line	693; "MC32F7361.c"	__ir_data <<= 1;
                                           	BCLR	PFLAG,0
                                           	RLR	_int_isr___ir_data_196609_82
                                           	RLR	(_int_isr___ir_data_196609_82 + 1)
                                           	RLR	(_int_isr___ir_data_196609_82 + 2)
                                           	RLR	(_int_isr___ir_data_196609_82 + 3)
                                           ;	.line	694; "MC32F7361.c"	__ir_data |= 0x01;
                                           	BSET	_int_isr___ir_data_196609_82,0
                                           	GOTO	_00487_DS_
                                           ;;swapping arguments (AOP_TYPEs 1/3)
                                           ;;unsigned compare: left >= lit(0x97=151), size=2
                                           _00480_DS_
                                           ;	.line	699; "MC32F7361.c"	else if (ir_level_cnt <= 150) // ĐˇÓÚ15000us,ËµĂ÷˝ÓĘŐµ˝ÁË¸ńĘ˝Í·
                                           	MOVAI	0x00
                                           	RSUBAR	(_int_isr_ir_level_cnt_196609_82 + 1)
                                           	JBSET	PFLAG,2
                                           	GOTO	_00691_DS_
                                           	MOVAI	0x97
                                           	RSUBAR	_int_isr_ir_level_cnt_196609_82
                                           _00691_DS_
                                           	JBSET	PFLAG,0
                                           	GOTO	_00487_DS_
                                           ;;genSkipc:3291: created from rifx:013B5EFC
                                           ;;swapping arguments (AOP_TYPEs 1/3)
                                           ;;unsigned compare: left >= lit(0x1A5=421), size=2
                                           ;	.line	702; "MC32F7361.c"	else if (ir_level_cnt <= 420) // ĐˇÓÚ42ms,ËµĂ÷˝ÓĘŐÍęŇ»´ÎÍęŐűµÄşěÍâĐĹşĹ
                                           	MOVAI	0x01
                                           	RSUBAR	(_int_isr_ir_level_cnt_196609_82 + 1)
                                           	JBSET	PFLAG,2
                                           	GOTO	_00692_DS_
                                           	MOVAI	0xa5
                                           	RSUBAR	_int_isr_ir_level_cnt_196609_82
                                           _00692_DS_
                                           	JBCLR	PFLAG,0
                                           	GOTO	_00487_DS_
                                           ;;genSkipc:3291: created from rifx:013B5EFC
                                           ;	.line	713; "MC32F7361.c"	if (0 == flag_is_recved_data)
                                           	JBCLR	_flag1,0
                                           	GOTO	_00487_DS_
                                           ;	.line	718; "MC32F7361.c"	ir_data = ~__ir_data;
                                           	MOVAR	_int_isr___ir_data_196609_82
                                           	MOVRA	r0x1023
                                           	COMAR	r0x1023
                                           	MOVRA	_ir_data
                                           ;	.line	719; "MC32F7361.c"	__ir_data = 0;
                                           	CLRR	_int_isr___ir_data_196609_82
                                           	CLRR	(_int_isr___ir_data_196609_82 + 1)
                                           	CLRR	(_int_isr___ir_data_196609_82 + 2)
                                           	CLRR	(_int_isr___ir_data_196609_82 + 3)
                                           ;	.line	720; "MC32F7361.c"	flag_is_recved_data = 1;
                                           	BSET	_flag1,0
                                           _00487_DS_
                                           ;	.line	736; "MC32F7361.c"	ir_level_cnt = 0;
                                           	CLRR	_int_isr_ir_level_cnt_196609_82
                                           	CLRR	(_int_isr_ir_level_cnt_196609_82 + 1)
                                           _00489_DS_
                                           ;	.line	739; "MC32F7361.c"	last_level_in_ir_pin = 0; // ±íĘľ˝ÓĘŐµ˝µÄĘÇµÍµçĆ˝
                                           	BCLR	_flag1,2
                                           _00494_DS_
                                           ;	.line	751; "MC32F7361.c"	__endasm;
                                           	;
                                           	swapar	_statusbuf;
                                           	movra	_PFLAG;
                                           	swapr	_abuf;
                                           	swapar	_abuf;
                                           	
                                           END_OF_INTERRUPT
                                           ;	.line	752; "MC32F7361.c"	}
                                           	RETIE	
                                           
                                           ;--------------------------------------------------------
                                           ; code
                                           ;--------------------------------------------------------
                                           code_MC32F7361	code
                                           ;***
                                           ;  pBlock Stats: dbName = M
                                           ;***
                                           ;entry:  _main	;Function start
                                           ; 2 exit points
                                           ;has an exit
                                           ;functions called:
                                           ;   _Sys_Init
                                           ;   _delay_ms
                                           ;   _EEPROM_Read_Byte
                                           ;   _EEPROM_Read_Byte
                                           ;   _EEPROM_Write_Byte
                                           ;   _delay_ms
                                           ;   _led_mode_handle
                                           ;   _key_handle
                                           ;   _key_handle
                                           ;   _Sys_Init
                                           ;   _delay_ms
                                           ;   _EEPROM_Read_Byte
                                           ;   _EEPROM_Read_Byte
                                           ;   _EEPROM_Write_Byte
                                           ;   _delay_ms
                                           ;   _led_mode_handle
                                           ;   _key_handle
                                           ;   _key_handle
                                           ;4 compiler assigned registers:
                                           ;   STK00
                                           ;   r0x1021
                                           ;   r0x1022
                                           ;   STK01
                                           ;; Starting pCode block
                                           _main	;Function start
                                           ; 2 exit points
                                           ;	.line	382; "MC32F7361.c"	Sys_Init();
                                           	CALL	_Sys_Init
                                           ;	.line	383; "MC32F7361.c"	delay_ms(1);
                                           	MOVAI	0x01
                                           	MOVRA	STK00
                                           	MOVAI	0x00
                                           	CALL	_delay_ms
                                           ;	.line	388; "MC32F7361.c"	cur_led_mode = EEPROM_Read_Byte(1);
                                           	MOVAI	0x01
                                           	CALL	_EEPROM_Read_Byte
                                           	MOVRA	r0x1021
                                           	MOVAR	STK00
                                           	MOVRA	_cur_led_mode
                                           	MOVRA	r0x1022
                                           ;;101	MOVAR	r0x1022
                                           ;	.line	389; "MC32F7361.c"	tmp = EEPROM_Read_Byte(2);
                                           	MOVAI	0x02
                                           	CALL	_EEPROM_Read_Byte
                                           	MOVRA	r0x1021
                                           	MOVAR	STK00
                                           	MOVRA	r0x1022
                                           ;	.line	391; "MC32F7361.c"	if (tmp != (u16)0xA5A6) // Čçąű˛»ĘÇ 0xA5A6Ł¬ËµĂ÷ĘÇµÚŇ»´ÎÉĎµç
                                           	MOVAR	r0x1022
                                           	XORAI	0xa6
                                           	JBSET	PFLAG,2
                                           	GOTO	_00405_DS_
                                           	MOVAR	r0x1021
                                           	XORAI	0xa5
                                           	JBSET	PFLAG,2
                                           	GOTO	_00405_DS_
                                           	GOTO	_00373_DS_
                                           _00405_DS_
                                           ;	.line	393; "MC32F7361.c"	cur_led_mode = LED_MODE_R2_C1;     // ÉčÖĂµÚŇ»´ÎÉĎµçµÄÄ¬ČĎÄŁĘ˝
                                           	MOVAI	0x01
                                           	MOVRA	_cur_led_mode
                                           ;	.line	394; "MC32F7361.c"	EEPROM_Write_Byte(2, (u16)0xA5A6); // µÚŇ»´ÎÉĎµçŁ¬Đ´Čë0xA5A6
                                           	MOVAI	0xa6
                                           	MOVRA	STK01
                                           	MOVAI	0xa5
                                           	MOVRA	STK00
                                           	MOVAI	0x02
                                           	CALL	_EEPROM_Write_Byte
                                           _00373_DS_
                                           ;	.line	398; "MC32F7361.c"	LED_CTL_PIN = 1;
                                           	BSET	_IOP0bits,4
                                           ;	.line	399; "MC32F7361.c"	delay_ms(15); // ˛»ÄÜĐˇÓÚ5msŁ¬·ńÔň´Ó»ú»á˝ÓĘŐ˛»µ˝
                                           	MOVAI	0x0f
                                           	MOVRA	STK00
                                           	MOVAI	0x00
                                           	CALL	_delay_ms
                                           ;	.line	400; "MC32F7361.c"	led_mode_handle(cur_led_mode);
                                           	MOVAR	_cur_led_mode
                                           	CALL	_led_mode_handle
                                           ;	.line	401; "MC32F7361.c"	flag_is_dev_open = 1;
                                           	BSET	_flag1,1
                                           _00381_DS_
                                           ;	.line	415; "MC32F7361.c"	if (flag_is_recved_data)
                                           	JBSET	_flag1,0
                                           	GOTO	_00381_DS_
                                           ;	.line	417; "MC32F7361.c"	if (rf_data != KEY_NONE)
                                           	MOVAI	0x00
                                           	ORAR	_rf_data
                                           	JBCLR	PFLAG,2
                                           	GOTO	_00375_DS_
                                           ;	.line	419; "MC32F7361.c"	key_handle(rf_data, 0);
                                           	MOVAI	0x00
                                           	MOVRA	STK00
                                           	MOVAR	_rf_data
                                           	CALL	_key_handle
                                           ;	.line	420; "MC32F7361.c"	rf_data = 0;
                                           	CLRR	_rf_data
                                           _00375_DS_
                                           ;	.line	423; "MC32F7361.c"	if (ir_data != IR_KEY_NONE)
                                           	MOVAI	0x00
                                           	ORAR	_ir_data
                                           	JBCLR	PFLAG,2
                                           	GOTO	_00377_DS_
                                           ;	.line	425; "MC32F7361.c"	key_handle(ir_data, 1);
                                           	MOVAI	0x01
                                           	MOVRA	STK00
                                           	MOVAR	_ir_data
                                           	CALL	_key_handle
                                           ;	.line	426; "MC32F7361.c"	ir_data = 0;
                                           	CLRR	_ir_data
                                           _00377_DS_
                                           ;	.line	431; "MC32F7361.c"	flag_is_recved_data = 0;
                                           	BCLR	_flag1,0
                                           	GOTO	_00381_DS_
                                           ;	.line	435; "MC32F7361.c"	}
                                           	RETURN	
                                           ; exit point of _main
                                           
                                           ;***
                                           ;  pBlock Stats: dbName = C
                                           ;***
                                           ;entry:  _key_handle	;Function start
                                           ; 2 exit points
                                           ;has an exit
                                           ;functions called:
                                           ;   _delay_ms
                                           ;   _delay_ms
                                           ;   _led_mode_handle
                                           ;   _delay_ms
                                           ;   _delay_ms
                                           ;   _led_mode_handle
                                           ;3 compiler assigned registers:
                                           ;   r0x101F
                                           ;   STK00
                                           ;   r0x1020
                                           ;; Starting pCode block
                                           _key_handle	;Function start
                                           ; 2 exit points
                                           ;	.line	183; "MC32F7361.c"	void key_handle(u8 key, u8 key_type)
                                           	MOVRA	r0x101F
                                           	MOVAR	STK00
                                           	MOVRA	r0x1020
                                           ;	.line	185; "MC32F7361.c"	volatile u8 tmp = cur_led_mode;
                                           	MOVAR	_cur_led_mode
                                           	MOVRA	_key_handle_tmp_65536_35
                                           ;	.line	187; "MC32F7361.c"	if (1 == key_type) // ČçąűĘÇşěÍâ°´ĽüŁ¬ĐčŇŞ˝«ĽüÖµ×Ş»»łÉ433ŇŁżŘĆ÷¶ÔÓ¦ą¦ÄÜµÄĽüÖµ
                                           	MOVAR	r0x1020
                                           	XORAI	0x01
                                           	JBSET	PFLAG,2
                                           	GOTO	_00181_DS_
                                           ;	.line	189; "MC32F7361.c"	switch (key)
                                           	MOVAR	r0x101F
                                           	XORAI	0x10
                                           	JBSET	PFLAG,2
                                           	GOTO	_00343_DS_
                                           	GOTO	_00171_DS_
                                           _00343_DS_
                                           	MOVAR	r0x101F
                                           	XORAI	0x22
                                           	JBSET	PFLAG,2
                                           	GOTO	_00344_DS_
                                           	GOTO	_00167_DS_
                                           _00344_DS_
                                           	MOVAR	r0x101F
                                           	XORAI	0x30
                                           	JBSET	PFLAG,2
                                           	GOTO	_00345_DS_
                                           	GOTO	_00170_DS_
                                           _00345_DS_
                                           	MOVAR	r0x101F
                                           	XORAI	0x5a
                                           	JBSET	PFLAG,2
                                           	GOTO	_00346_DS_
                                           	GOTO	_00177_DS_
                                           _00346_DS_
                                           	MOVAR	r0x101F
                                           	XORAI	0x68
                                           	JBSET	PFLAG,2
                                           	GOTO	_00347_DS_
                                           	GOTO	_00169_DS_
                                           _00347_DS_
                                           	MOVAR	r0x101F
                                           	XORAI	0x7a
                                           	JBSET	PFLAG,2
                                           	GOTO	_00348_DS_
                                           	GOTO	_00176_DS_
                                           _00348_DS_
                                           	MOVAR	r0x101F
                                           	XORAI	0x90
                                           	JBSET	PFLAG,2
                                           	GOTO	_00349_DS_
                                           	GOTO	_00174_DS_
                                           _00349_DS_
                                           	MOVAR	r0x101F
                                           	XORAI	0xa2
                                           	JBSET	PFLAG,2
                                           	GOTO	_00350_DS_
                                           	GOTO	_00166_DS_
                                           _00350_DS_
                                           	MOVAR	r0x101F
                                           	XORAI	0xb0
                                           	JBSET	PFLAG,2
                                           	GOTO	_00351_DS_
                                           	GOTO	_00175_DS_
                                           _00351_DS_
                                           	MOVAR	r0x101F
                                           	XORAI	0xc2
                                           	JBSET	PFLAG,2
                                           	GOTO	_00352_DS_
                                           	GOTO	_00173_DS_
                                           _00352_DS_
                                           	MOVAR	r0x101F
                                           	XORAI	0xe0
                                           	JBSET	PFLAG,2
                                           	GOTO	_00353_DS_
                                           	GOTO	_00168_DS_
                                           _00353_DS_
                                           	MOVAR	r0x101F
                                           	XORAI	0xe2
                                           	JBSET	PFLAG,2
                                           	GOTO	_00354_DS_
                                           	GOTO	_00172_DS_
                                           _00354_DS_
                                           	GOTO	_00178_DS_
                                           _00166_DS_
                                           ;	.line	192; "MC32F7361.c"	key = KEY_ON;
                                           	MOVAI	0x01
                                           	MOVRA	r0x101F
                                           ;	.line	193; "MC32F7361.c"	break;
                                           	GOTO	_00181_DS_
                                           _00167_DS_
                                           ;	.line	196; "MC32F7361.c"	key = KEY_R2_C1;
                                           	MOVAI	0x04
                                           	MOVRA	r0x101F
                                           ;	.line	197; "MC32F7361.c"	break;
                                           	GOTO	_00181_DS_
                                           _00168_DS_
                                           ;	.line	200; "MC32F7361.c"	key = KEY_R3_C1;
                                           	MOVAI	0x07
                                           	MOVRA	r0x101F
                                           ;	.line	201; "MC32F7361.c"	break;
                                           	GOTO	_00181_DS_
                                           _00169_DS_
                                           ;	.line	204; "MC32F7361.c"	key = KEY_R4_C1;
                                           	MOVAI	0x0a
                                           	MOVRA	r0x101F
                                           ;	.line	205; "MC32F7361.c"	break;
                                           	GOTO	_00181_DS_
                                           _00170_DS_
                                           ;	.line	208; "MC32F7361.c"	key = KEY_R5_C1;
                                           	MOVAI	0x0d
                                           	MOVRA	r0x101F
                                           ;	.line	209; "MC32F7361.c"	break;
                                           	GOTO	_00181_DS_
                                           _00171_DS_
                                           ;	.line	212; "MC32F7361.c"	key = KEY_R6_C1_FLASH;
                                           	MOVAI	0x10
                                           	MOVRA	r0x101F
                                           ;	.line	213; "MC32F7361.c"	break;
                                           	GOTO	_00181_DS_
                                           _00172_DS_
                                           ;	.line	216; "MC32F7361.c"	key = KEY_OFF;
                                           	MOVAI	0x03
                                           	MOVRA	r0x101F
                                           ;	.line	217; "MC32F7361.c"	break;
                                           	GOTO	_00181_DS_
                                           _00173_DS_
                                           ;	.line	220; "MC32F7361.c"	key = KEY_R2_C2;
                                           	MOVAI	0x06
                                           	MOVRA	r0x101F
                                           ;	.line	221; "MC32F7361.c"	break;
                                           	GOTO	_00181_DS_
                                           _00174_DS_
                                           ;	.line	224; "MC32F7361.c"	key = KEY_R3_C2;
                                           	MOVAI	0x09
                                           	MOVRA	r0x101F
                                           ;	.line	225; "MC32F7361.c"	break;
                                           	GOTO	_00181_DS_
                                           _00175_DS_
                                           ;	.line	228; "MC32F7361.c"	key = KEY_R4_C2;
                                           	MOVAI	0x0c
                                           	MOVRA	r0x101F
                                           ;	.line	229; "MC32F7361.c"	break;
                                           	GOTO	_00181_DS_
                                           _00176_DS_
                                           ;	.line	232; "MC32F7361.c"	key = KEY_R5_C2_MULTI_FLASH;
                                           	MOVAI	0x0f
                                           	MOVRA	r0x101F
                                           ;	.line	233; "MC32F7361.c"	break;
                                           	GOTO	_00181_DS_
                                           _00177_DS_
                                           ;	.line	236; "MC32F7361.c"	key = KEY_R6_C2_FADE;
                                           	MOVAI	0x12
                                           	MOVRA	r0x101F
                                           ;	.line	237; "MC32F7361.c"	break;
                                           	GOTO	_00181_DS_
                                           _00178_DS_
                                           ;	.line	240; "MC32F7361.c"	cur_led_mode = tmp; // ČĂµĆąâµÄ×´Ě¬˛»±ä
                                           	MOVAR	_key_handle_tmp_65536_35
                                           	MOVRA	_cur_led_mode
                                           ;	.line	241; "MC32F7361.c"	return;             // Ö±˝ÓÍËłö
                                           	GOTO	_00217_DS_
                                           _00181_DS_
                                           ;	.line	245; "MC32F7361.c"	switch (key)
                                           	MOVAR	r0x101F
                                           	XORAI	0x01
                                           	JBSET	PFLAG,2
                                           	GOTO	_00355_DS_
                                           	GOTO	_00182_DS_
                                           _00355_DS_
                                           	MOVAR	r0x101F
                                           	XORAI	0x03
                                           	JBSET	PFLAG,2
                                           	GOTO	_00356_DS_
                                           	GOTO	_00186_DS_
                                           _00356_DS_
                                           	MOVAR	r0x101F
                                           	XORAI	0x04
                                           	JBSET	PFLAG,2
                                           	GOTO	_00357_DS_
                                           	GOTO	_00187_DS_
                                           _00357_DS_
                                           	MOVAR	r0x101F
                                           	XORAI	0x06
                                           	JBSET	PFLAG,2
                                           	GOTO	_00358_DS_
                                           	GOTO	_00188_DS_
                                           _00358_DS_
                                           	MOVAR	r0x101F
                                           	XORAI	0x07
                                           	JBSET	PFLAG,2
                                           	GOTO	_00359_DS_
                                           	GOTO	_00189_DS_
                                           _00359_DS_
                                           	MOVAR	r0x101F
                                           	XORAI	0x09
                                           	JBSET	PFLAG,2
                                           	GOTO	_00360_DS_
                                           	GOTO	_00190_DS_
                                           _00360_DS_
                                           	MOVAR	r0x101F
                                           	XORAI	0x0a
                                           	JBSET	PFLAG,2
                                           	GOTO	_00361_DS_
                                           	GOTO	_00191_DS_
                                           _00361_DS_
                                           	MOVAR	r0x101F
                                           	XORAI	0x0c
                                           	JBSET	PFLAG,2
                                           	GOTO	_00362_DS_
                                           	GOTO	_00192_DS_
                                           _00362_DS_
                                           	MOVAR	r0x101F
                                           	XORAI	0x0d
                                           	JBSET	PFLAG,2
                                           	GOTO	_00363_DS_
                                           	GOTO	_00193_DS_
                                           _00363_DS_
                                           	MOVAR	r0x101F
                                           	XORAI	0x0f
                                           	JBSET	PFLAG,2
                                           	GOTO	_00364_DS_
                                           	GOTO	_00194_DS_
                                           _00364_DS_
                                           	MOVAR	r0x101F
                                           	XORAI	0x10
                                           	JBSET	PFLAG,2
                                           	GOTO	_00365_DS_
                                           	GOTO	_00195_DS_
                                           _00365_DS_
                                           	MOVAR	r0x101F
                                           	XORAI	0x12
                                           	JBSET	PFLAG,2
                                           	GOTO	_00366_DS_
                                           	GOTO	_00196_DS_
                                           _00366_DS_
                                           	MOVAR	r0x101F
                                           	XORAI	0x25
                                           	JBSET	PFLAG,2
                                           	GOTO	_00367_DS_
                                           	GOTO	_00197_DS_
                                           _00367_DS_
                                           	GOTO	_00212_DS_
                                           _00182_DS_
                                           ;	.line	249; "MC32F7361.c"	LED_CTL_PIN = 1;
                                           	BSET	_IOP0bits,4
                                           ;	.line	252; "MC32F7361.c"	if (flag_is_dev_open)
                                           	JBSET	_flag1,1
                                           	GOTO	_00184_DS_
                                           ;	.line	254; "MC32F7361.c"	return;
                                           	GOTO	_00217_DS_
                                           _00184_DS_
                                           ;	.line	258; "MC32F7361.c"	delay_ms(15);
                                           	MOVAI	0x0f
                                           	MOVRA	STK00
                                           	MOVAI	0x00
                                           	CALL	_delay_ms
                                           ;	.line	262; "MC32F7361.c"	flag_is_dev_open = 1; // ±íĘľÉč±¸ŇŃ żŞĆô
                                           	BSET	_flag1,1
                                           ;	.line	263; "MC32F7361.c"	break;
                                           	GOTO	_00213_DS_
                                           _00186_DS_
                                           ;	.line	266; "MC32F7361.c"	LED_CTL_PIN = 0;
                                           	BCLR	_IOP0bits,4
                                           ;	.line	267; "MC32F7361.c"	flag_is_dev_open = 0; // ±íĘľÉč±¸ŇŃ ąŘ±Ő
                                           	BCLR	_flag1,1
                                           ;	.line	268; "MC32F7361.c"	break;
                                           	GOTO	_00213_DS_
                                           _00187_DS_
                                           ;	.line	271; "MC32F7361.c"	cur_led_mode = LED_MODE_R2_C1;
                                           	MOVAI	0x01
                                           	MOVRA	_cur_led_mode
                                           ;	.line	272; "MC32F7361.c"	break;
                                           	GOTO	_00213_DS_
                                           _00188_DS_
                                           ;	.line	275; "MC32F7361.c"	cur_led_mode = LED_MODE_R2_C2;
                                           	MOVAI	0x05
                                           	MOVRA	_cur_led_mode
                                           ;	.line	276; "MC32F7361.c"	break;
                                           	GOTO	_00213_DS_
                                           _00189_DS_
                                           ;	.line	279; "MC32F7361.c"	cur_led_mode = LED_MODE_R3_C1;
                                           	MOVAI	0x02
                                           	MOVRA	_cur_led_mode
                                           ;	.line	280; "MC32F7361.c"	break;
                                           	GOTO	_00213_DS_
                                           _00190_DS_
                                           ;	.line	283; "MC32F7361.c"	cur_led_mode = LED_MODE_R3_C2;
                                           	MOVAI	0x06
                                           	MOVRA	_cur_led_mode
                                           ;	.line	284; "MC32F7361.c"	break;
                                           	GOTO	_00213_DS_
                                           _00191_DS_
                                           ;	.line	287; "MC32F7361.c"	cur_led_mode = LED_MODE_R4_C1;
                                           	MOVAI	0x03
                                           	MOVRA	_cur_led_mode
                                           ;	.line	288; "MC32F7361.c"	break;
                                           	GOTO	_00213_DS_
                                           _00192_DS_
                                           ;	.line	291; "MC32F7361.c"	cur_led_mode = LED_MODE_R4_C2;
                                           	MOVAI	0x07
                                           	MOVRA	_cur_led_mode
                                           ;	.line	292; "MC32F7361.c"	break;
                                           	GOTO	_00213_DS_
                                           _00193_DS_
                                           ;	.line	295; "MC32F7361.c"	cur_led_mode = LED_MODE_R5_C1;
                                           	MOVAI	0x04
                                           	MOVRA	_cur_led_mode
                                           ;	.line	296; "MC32F7361.c"	break;
                                           	GOTO	_00213_DS_
                                           _00194_DS_
                                           ;	.line	299; "MC32F7361.c"	cur_led_mode = LED_MODE_R5_C2_MULTI_FLASH;
                                           	MOVAI	0x0a
                                           	MOVRA	_cur_led_mode
                                           ;	.line	300; "MC32F7361.c"	break;
                                           	GOTO	_00213_DS_
                                           _00195_DS_
                                           ;	.line	303; "MC32F7361.c"	cur_led_mode = LED_MODE_R6_C1_FLASH;
                                           	MOVAI	0x09
                                           	MOVRA	_cur_led_mode
                                           ;	.line	304; "MC32F7361.c"	break;
                                           	GOTO	_00213_DS_
                                           _00196_DS_
                                           ;	.line	307; "MC32F7361.c"	cur_led_mode = LED_MODE_R6_C2_FADE;
                                           	MOVAI	0x08
                                           	MOVRA	_cur_led_mode
                                           ;	.line	308; "MC32F7361.c"	break;
                                           	GOTO	_00213_DS_
                                           _00197_DS_
                                           ;	.line	311; "MC32F7361.c"	if (flag_is_dev_open)   // ČçąűÉč±¸ŇŃľ­´ňżŞ
                                           	JBSET	_flag1,1
                                           	GOTO	_00210_DS_
                                           ;	.line	313; "MC32F7361.c"	switch (cur_led_mode)
                                           	MOVAR	_cur_led_mode
                                           	MOVRA	r0x101F
                                           ;;unsigned compare: left < lit(0x1=1), size=1
                                           	MOVAI	0x01
                                           	RSUBAR	r0x101F
                                           	JBSET	PFLAG,0
                                           	GOTO	_00213_DS_
                                           ;;genSkipc:3291: created from rifx:013B5EFC
                                           ;;swapping arguments (AOP_TYPEs 1/2)
                                           ;;unsigned compare: left >= lit(0xB=11), size=1
                                           	MOVAI	0x0b
                                           	RSUBAR	r0x101F
                                           	JBCLR	PFLAG,0
                                           	GOTO	_00213_DS_
                                           ;;genSkipc:3291: created from rifx:013B5EFC
                                           	DECR	r0x101F
                                           	MOVAR	r0x101F
                                           	ADDRA	PCL
                                           	GOTO	_00198_DS_
                                           	GOTO	_00199_DS_
                                           	GOTO	_00200_DS_
                                           	GOTO	_00201_DS_
                                           	GOTO	_00202_DS_
                                           	GOTO	_00203_DS_
                                           	GOTO	_00204_DS_
                                           	GOTO	_00205_DS_
                                           	GOTO	_00206_DS_
                                           	GOTO	_00207_DS_
                                           _00198_DS_
                                           ;	.line	316; "MC32F7361.c"	cur_led_mode = LED_MODE_R3_C1; // ÇĐ»»ÎŞÂĚµĆ
                                           	MOVAI	0x02
                                           	MOVRA	_cur_led_mode
                                           ;	.line	317; "MC32F7361.c"	break;
                                           	GOTO	_00213_DS_
                                           _00199_DS_
                                           ;	.line	319; "MC32F7361.c"	cur_led_mode = LED_MODE_R4_C1; // ÇĐ»»ÎŞłČµĆ
                                           	MOVAI	0x03
                                           	MOVRA	_cur_led_mode
                                           ;	.line	320; "MC32F7361.c"	break;
                                           	GOTO	_00213_DS_
                                           _00200_DS_
                                           ;	.line	322; "MC32F7361.c"	cur_led_mode = LED_MODE_R5_C1; // ÇĐ»»ÎŞ°×µĆ
                                           	MOVAI	0x04
                                           	MOVRA	_cur_led_mode
                                           ;	.line	323; "MC32F7361.c"	break;
                                           	GOTO	_00213_DS_
                                           _00201_DS_
                                           ;	.line	325; "MC32F7361.c"	cur_led_mode = LED_MODE_R2_C2; // ÇĐ»»ÎŞ×ĎµĆ
                                           	MOVAI	0x05
                                           	MOVRA	_cur_led_mode
                                           ;	.line	326; "MC32F7361.c"	break;
                                           	GOTO	_00213_DS_
                                           _00202_DS_
                                           ;	.line	328; "MC32F7361.c"	cur_led_mode = LED_MODE_R3_C2; // ÇĐ»»ÎŞ»ĆµĆ
                                           	MOVAI	0x06
                                           	MOVRA	_cur_led_mode
                                           ;	.line	329; "MC32F7361.c"	break;
                                           	GOTO	_00213_DS_
                                           _00203_DS_
                                           ;	.line	331; "MC32F7361.c"	cur_led_mode = LED_MODE_R4_C2; // ÇĐ»»ÎŞŔ¶µĆ
                                           	MOVAI	0x07
                                           	MOVRA	_cur_led_mode
                                           ;	.line	332; "MC32F7361.c"	break;
                                           	GOTO	_00213_DS_
                                           _00204_DS_
                                           ;	.line	334; "MC32F7361.c"	cur_led_mode = LED_MODE_R6_C2_FADE; // ÇĐ»»ÎŞ FADE ÄŁĘ˝
                                           	MOVAI	0x08
                                           	MOVRA	_cur_led_mode
                                           ;	.line	335; "MC32F7361.c"	break;
                                           	GOTO	_00213_DS_
                                           _00205_DS_
                                           ;	.line	337; "MC32F7361.c"	cur_led_mode = LED_MODE_R6_C1_FLASH; // ÇĐ»»ÎŞ FLASH ÄŁĘ˝
                                           	MOVAI	0x09
                                           	MOVRA	_cur_led_mode
                                           ;	.line	338; "MC32F7361.c"	break;
                                           	GOTO	_00213_DS_
                                           _00206_DS_
                                           ;	.line	340; "MC32F7361.c"	cur_led_mode = LED_MODE_R5_C2_MULTI_FLASH; // ÇĐ»»ÎŞ MULTI_FALSH ÄŁĘ˝
                                           	MOVAI	0x0a
                                           	MOVRA	_cur_led_mode
                                           ;	.line	341; "MC32F7361.c"	break;
                                           	GOTO	_00213_DS_
                                           _00207_DS_
                                           ;	.line	343; "MC32F7361.c"	LED_CTL_PIN = 0;
                                           	BCLR	_IOP0bits,4
                                           ;	.line	344; "MC32F7361.c"	flag_is_dev_open = 0; // ±íĘľÉč±¸ŇŃ ąŘ±Ő
                                           	BCLR	_flag1,1
                                           ;	.line	346; "MC32F7361.c"	}
                                           	GOTO	_00213_DS_
                                           _00210_DS_
                                           ;	.line	350; "MC32F7361.c"	LED_CTL_PIN = 1;
                                           	BSET	_IOP0bits,4
                                           ;	.line	351; "MC32F7361.c"	delay_ms(5);
                                           	MOVAI	0x05
                                           	MOVRA	STK00
                                           	MOVAI	0x00
                                           	CALL	_delay_ms
                                           ;	.line	352; "MC32F7361.c"	cur_led_mode = LED_MODE_R2_C1; // ÇĐ»»ÎŞşěµĆ
                                           	MOVAI	0x01
                                           	MOVRA	_cur_led_mode
                                           ;	.line	353; "MC32F7361.c"	flag_is_dev_open = 1;          // ±íĘľÉč±¸ŇŃ żŞĆô
                                           	BSET	_flag1,1
                                           ;	.line	355; "MC32F7361.c"	break;
                                           	GOTO	_00213_DS_
                                           _00212_DS_
                                           ;	.line	359; "MC32F7361.c"	cur_led_mode = tmp; // ČĂµĆąâµÄ×´Ě¬˛»±ä
                                           	MOVAR	_key_handle_tmp_65536_35
                                           	MOVRA	_cur_led_mode
                                           ;	.line	360; "MC32F7361.c"	return;             // Ö±˝ÓÍËłö
                                           	GOTO	_00217_DS_
                                           _00213_DS_
                                           ;	.line	364; "MC32F7361.c"	if (0 == flag_is_dev_open) // ČçąűÉč±¸Î´żŞĆôŁ¬˛»·˘ËÍĘýľÝÖˇ
                                           	JBCLR	_flag1,1
                                           	GOTO	_00215_DS_
                                           ;	.line	366; "MC32F7361.c"	cur_led_mode = tmp; // ČĂµĆąâµÄ×´Ě¬˛»±äŁ¬·ŔÖąąŘ»úşóŁ¬ÔŮ°´ĎÂŇŁżŘĆ÷µÄĆäËűÄŁĘ˝°´ĽüŁ¬ÔŮżŞ»úŁ¬˝ř¶ř¸Ä±äÁËµĆąâµÄÄŁĘ˝
                                           	MOVAR	_key_handle_tmp_65536_35
                                           	MOVRA	_cur_led_mode
                                           	GOTO	_00217_DS_
                                           _00215_DS_
                                           ;	.line	370; "MC32F7361.c"	led_mode_handle(cur_led_mode);
                                           	MOVAR	_cur_led_mode
                                           	CALL	_led_mode_handle
                                           _00217_DS_
                                           ;	.line	372; "MC32F7361.c"	}
                                           	RETURN	
                                           ; exit point of _key_handle
                                           
                                           ;***
                                           ;  pBlock Stats: dbName = C
                                           ;***
                                           ;entry:  _Sys_Init	;Function start
                                           ; 2 exit points
                                           ;has an exit
                                           ;functions called:
                                           ;   _CLR_RAM
                                           ;   _IO_Init
                                           ;   _TIMER2_INT_Init
                                           ;   _CLR_RAM
                                           ;   _IO_Init
                                           ;   _TIMER2_INT_Init
                                           ;; Starting pCode block
                                           _Sys_Init	;Function start
                                           ; 2 exit points
                                           ;	.line	148; "MC32F7361.c"	GIE = 0;
                                           	BCLR	_MCRbits,7
                                           ;	.line	149; "MC32F7361.c"	CLR_RAM();
                                           	CALL	_CLR_RAM
                                           ;	.line	150; "MC32F7361.c"	IO_Init();
                                           	CALL	_IO_Init
                                           ;	.line	154; "MC32F7361.c"	TIMER2_INT_Init();
                                           	CALL	_TIMER2_INT_Init
                                           ;	.line	163; "MC32F7361.c"	P13PU = 1; // ÉĎŔ­
                                           	BSET	_PUP1bits,3
                                           ;	.line	164; "MC32F7361.c"	P13OE = 0; // ĘäČëÄŁĘ˝
                                           	BCLR	_OEP1bits,3
                                           ;	.line	171; "MC32F7361.c"	P16PU = 1; // ÉĎŔ­
                                           	BSET	_PUP1bits,6
                                           ;	.line	172; "MC32F7361.c"	P16OE = 0; // ĘäČëÄŁĘ˝
                                           	BCLR	_OEP1bits,6
                                           ;	.line	174; "MC32F7361.c"	GIE = 1;
                                           	BSET	_MCRbits,7
                                           ;	.line	175; "MC32F7361.c"	}
                                           	RETURN	
                                           ; exit point of _Sys_Init
                                           
                                           ;***
                                           ;  pBlock Stats: dbName = C
                                           ;***
                                           ;entry:  _TIMER2_INT_Init	;Function start
                                           ; 2 exit points
                                           ;has an exit
                                           ;; Starting pCode block
                                           _TIMER2_INT_Init	;Function start
                                           ; 2 exit points
                                           ;	.line	134; "MC32F7361.c"	T2CR = DEF_SET_BIT0 | DEF_SET_BIT1; // CPU,8·ÖĆµ
                                           	MOVAI	0x03
                                           	MOVRA	_T2CR
                                           ;	.line	135; "MC32F7361.c"	T2CNT = 100 - 1;
                                           	MOVAI	0x63
                                           	MOVRA	_T2CNT
                                           ;	.line	136; "MC32F7361.c"	T2LOAD = 100 - 1; // 100us
                                           	MOVAI	0x63
                                           	MOVRA	_T2LOAD
                                           ;	.line	137; "MC32F7361.c"	T2EN = 1;
                                           	BSET	_T2CRbits,7
                                           ;	.line	138; "MC32F7361.c"	T2IE = 1;
                                           	BSET	_INTEbits,5
                                           ;	.line	139; "MC32F7361.c"	}
                                           	RETURN	
                                           ; exit point of _TIMER2_INT_Init
                                           
                                           ;***
                                           ;  pBlock Stats: dbName = C
                                           ;***
                                           ;entry:  _IO_Init	;Function start
                                           ; 2 exit points
                                           ;has an exit
                                           ;; Starting pCode block
                                           _IO_Init	;Function start
                                           ; 2 exit points
                                           ;	.line	102; "MC32F7361.c"	IOP0 = (0x01 << 0); // iożÚĘýľÝÎ»Ł¬P00Ęäłö¸ßµçĆ˝
                                           	MOVAI	0x01
                                           	MOVRA	_IOP0
                                           ;	.line	103; "MC32F7361.c"	OEP0 = 0x3F;        // iożÚ·˝Ďň 1:out  0:in
                                           	MOVAI	0x3f
                                           	MOVRA	_OEP0
                                           ;	.line	104; "MC32F7361.c"	PUP0 = 0x00;        // iożÚÉĎŔ­µç×č   1:enable  0:disable
                                           	CLRR	_PUP0
                                           ;	.line	105; "MC32F7361.c"	PDP0 = 0x00;        // iożÚĎÂŔ­µç×č   1:enable  0:disable
                                           	CLRR	_PDP0
                                           ;	.line	106; "MC32F7361.c"	P0ADCR = 0x00;      // ioŔŕĐÍŃˇÔń  1:ÄŁÄâĘäČë  0:Í¨ÓĂio
                                           	CLRR	_P0ADCR
                                           ;	.line	111; "MC32F7361.c"	IOP1 = (0x01 << 7) | (0x01 << 5); // iożÚĘýľÝÎ», P15Ęäłö¸ßµçĆ˝Ł¬P17Ęäłö¸ßµçĆ˝
                                           	MOVAI	0xa0
                                           	MOVRA	_IOP1
                                           ;	.line	112; "MC32F7361.c"	OEP1 = 0xFF;                      // iożÚ·˝Ďň 1:out  0:in
                                           	MOVAI	0xff
                                           	MOVRA	_OEP1
                                           ;	.line	113; "MC32F7361.c"	PUP1 = 0x00;                      // iożÚÉĎŔ­µç×č   1:enable  0:disable
                                           	CLRR	_PUP1
                                           ;	.line	114; "MC32F7361.c"	PDP1 = 0x00;                      // iożÚĎÂŔ­µç×č   1:enable  0:disable
                                           	CLRR	_PDP1
                                           ;	.line	115; "MC32F7361.c"	P1ADCR = 0x00;                    // ioŔŕĐÍŃˇÔń  1:ÄŁÄâĘäČë  0:Í¨ÓĂio
                                           	CLRR	_P1ADCR
                                           ;	.line	117; "MC32F7361.c"	IOP2 = 0x00; // iożÚĘýľÝÎ»
                                           	CLRR	_IOP2
                                           ;	.line	118; "MC32F7361.c"	OEP2 = 0x0F; // iożÚ·˝Ďň 1:out  0:in
                                           	MOVAI	0x0f
                                           	MOVRA	_OEP2
                                           ;	.line	119; "MC32F7361.c"	PUP2 = 0x00; // iożÚÉĎŔ­µç×č   1:enable  0:disable
                                           	CLRR	_PUP2
                                           ;	.line	120; "MC32F7361.c"	PDP2 = 0x00; // iożÚĎÂŔ­µç×č   1:enable  0:disablea
                                           	CLRR	_PDP2
                                           ;	.line	122; "MC32F7361.c"	PMOD = 0x00;  // P00ˇ˘P01ˇ˘P13 io¶ËżÚÖµ´ÓĽÄ´ćĆ÷¶ÁŁ¬ÍĆÍěĘäłö
                                           	CLRR	_PMOD
                                           ;	.line	123; "MC32F7361.c"	DRVCR = 0x80; // ĆŐÍ¨Çý¶Ż
                                           	MOVAI	0x80
                                           	MOVRA	_DRVCR
                                           ;	.line	124; "MC32F7361.c"	}
                                           	RETURN	
                                           ; exit point of _IO_Init
                                           
                                           ;***
                                           ;  pBlock Stats: dbName = C
                                           ;***
                                           ;entry:  _CLR_RAM	;Function start
                                           ; 2 exit points
                                           ;has an exit
                                           ;; Starting pCode block
                                           _CLR_RAM	;Function start
                                           ; 2 exit points
                                           ;	.line	84; "MC32F7361.c"	for (FSR0 = 0; FSR0 < 0xff; FSR0++)
                                           	CLRR	_FSR0
                                           ;;unsigned compare: left < lit(0xFF=255), size=1
                                           _00149_DS_
                                           	MOVAI	0xff
                                           	RSUBAR	_FSR0
                                           	JBCLR	PFLAG,0
                                           	GOTO	_00147_DS_
                                           ;;genSkipc:3291: created from rifx:013B5EFC
                                           ;	.line	86; "MC32F7361.c"	INDF0 = 0x00;
                                           	CLRR	_INDF0
                                           ;	.line	84; "MC32F7361.c"	for (FSR0 = 0; FSR0 < 0xff; FSR0++)
                                           	INCR	_FSR0
                                           	GOTO	_00149_DS_
                                           _00147_DS_
                                           ;	.line	88; "MC32F7361.c"	FSR0 = 0xFF;
                                           	MOVAI	0xff
                                           	MOVRA	_FSR0
                                           ;	.line	89; "MC32F7361.c"	INDF0 = 0x00;
                                           	CLRR	_INDF0
                                           ;	.line	90; "MC32F7361.c"	}
                                           	RETURN	
                                           ; exit point of _CLR_RAM
                                           
                                           ;***
                                           ;  pBlock Stats: dbName = C
                                           ;***
                                           ;entry:  _led_mode_handle	;Function start
                                           ; 2 exit points
                                           ;has an exit
                                           ;functions called:
                                           ;   _EEPROM_Write_Byte
                                           ;   _EEPROM_Write_Byte
                                           ;   _delay_10us
                                           ;   _delay_10us
                                           ;   _delay_ms
                                           ;   _EEPROM_Write_Byte
                                           ;   _EEPROM_Write_Byte
                                           ;   _delay_10us
                                           ;   _delay_10us
                                           ;   _delay_ms
                                           ;5 compiler assigned registers:
                                           ;   r0x101C
                                           ;   r0x101D
                                           ;   r0x101E
                                           ;   STK01
                                           ;   STK00
                                           ;; Starting pCode block
                                           _led_mode_handle	;Function start
                                           ; 2 exit points
                                           ;	.line	47; "MC32F7361.c"	void led_mode_handle(const u8 period)
                                           	MOVRA	r0x101C
                                           ;	.line	52; "MC32F7361.c"	EEPROM_Write_Byte(1, cur_led_mode); // ±Ł´ćµ±Ç°µÄÄŁĘ˝µ˝EEPROMÖĐ
                                           	MOVAR	_cur_led_mode
                                           	MOVRA	r0x101D
                                           	CLRR	r0x101E
                                           	MOVAR	r0x101D
                                           	MOVRA	STK01
                                           	MOVAI	0x00
                                           	MOVRA	STK00
                                           	MOVAI	0x01
                                           	CALL	_EEPROM_Write_Byte
                                           ;	.line	53; "MC32F7361.c"	EEPROM_Write_Byte(2, (u16)0xA5A6);
                                           	MOVAI	0xa6
                                           	MOVRA	STK01
                                           	MOVAI	0xa5
                                           	MOVRA	STK00
                                           	MOVAI	0x02
                                           	CALL	_EEPROM_Write_Byte
                                           ;	.line	55; "MC32F7361.c"	GIE = 0; // ĆÁ±Î×ÜÖĐ¶Ď
                                           	BCLR	_MCRbits,7
                                           ;	.line	57; "MC32F7361.c"	for (i = 0; i < 10; i++)
                                           	CLRR	r0x101D
                                           _00142_DS_
                                           ;	.line	59; "MC32F7361.c"	LED_CTL_PIN = 1;
                                           	BSET	_IOP0bits,4
                                           ;	.line	61; "MC32F7361.c"	for (j = 0; j < period; j++)
                                           	CLRR	r0x101E
                                           _00140_DS_
                                           	MOVAR	r0x101C
                                           	RSUBAR	r0x101E
                                           	JBCLR	PFLAG,0
                                           	GOTO	_00137_DS_
                                           ;;genSkipc:3291: created from rifx:013B5EFC
                                           ;	.line	63; "MC32F7361.c"	LED_CTL_PIN = 0;
                                           	BCLR	_IOP0bits,4
                                           ;	.line	64; "MC32F7361.c"	delay_10us(1);
                                           	MOVAI	0x01
                                           	MOVRA	STK00
                                           	MOVAI	0x00
                                           	CALL	_delay_10us
                                           ;	.line	65; "MC32F7361.c"	LED_CTL_PIN = 1;
                                           	BSET	_IOP0bits,4
                                           ;	.line	67; "MC32F7361.c"	delay_10us(5);
                                           	MOVAI	0x05
                                           	MOVRA	STK00
                                           	MOVAI	0x00
                                           	CALL	_delay_10us
                                           ;	.line	61; "MC32F7361.c"	for (j = 0; j < period; j++)
                                           	INCR	r0x101E
                                           	GOTO	_00140_DS_
                                           _00137_DS_
                                           ;	.line	70; "MC32F7361.c"	delay_ms(2); // Ăż¸öÖ¸ÁîĽä¸ô1msŇÔÉĎ
                                           	MOVAI	0x02
                                           	MOVRA	STK00
                                           	MOVAI	0x00
                                           	CALL	_delay_ms
                                           ;	.line	57; "MC32F7361.c"	for (i = 0; i < 10; i++)
                                           	INCR	r0x101D
                                           ;;unsigned compare: left < lit(0xA=10), size=1
                                           	MOVAI	0x0a
                                           	RSUBAR	r0x101D
                                           	JBSET	PFLAG,0
                                           	GOTO	_00142_DS_
                                           ;;genSkipc:3291: created from rifx:013B5EFC
                                           ;	.line	73; "MC32F7361.c"	GIE = 1; // ĘąÄÜ×ÜÖĐ¶Ď
                                           	BSET	_MCRbits,7
                                           ;	.line	74; "MC32F7361.c"	}
                                           	RETURN	
                                           ; exit point of _led_mode_handle
                                           
                                           ;***
                                           ;  pBlock Stats: dbName = C
                                           ;***
                                           ;entry:  _delay_10us	;Function start
                                           ; 2 exit points
                                           ;has an exit
                                           ;5 compiler assigned registers:
                                           ;   r0x1016
                                           ;   STK00
                                           ;   r0x1017
                                           ;   r0x1018
                                           ;   r0x1019
                                           ;; Starting pCode block
                                           _delay_10us	;Function start
                                           ; 2 exit points
                                           ;	.line	17; "MC32F7361.c"	void delay_10us(u16 x_10us)
                                           	MOVRA	r0x1016
                                           	MOVAR	STK00
                                           	MOVRA	r0x1017
                                           _00129_DS_
                                           ;	.line	19; "MC32F7361.c"	while (x_10us)
                                           	MOVAR	r0x1017
                                           	ORAR	r0x1016
                                           	JBCLR	PFLAG,2
                                           	GOTO	_00132_DS_
                                           ;	.line	23; "MC32F7361.c"	while (i--)
                                           	MOVAI	0x05
                                           	MOVRA	r0x1018
                                           _00126_DS_
                                           	MOVAR	r0x1018
                                           	MOVRA	r0x1019
                                           	DECR	r0x1018
                                           	MOVAI	0x00
                                           	ORAR	r0x1019
                                           	JBCLR	PFLAG,2
                                           	GOTO	_00128_DS_
                                           ;	.line	25; "MC32F7361.c"	Nop();
                                           	nop	
                                           	GOTO	_00126_DS_
                                           _00128_DS_
                                           ;	.line	28; "MC32F7361.c"	x_10us--;
                                           	MOVAI	0xff
                                           	ADDRA	r0x1017
                                           	JBSET	PFLAG,0
                                           	DECR	r0x1016
                                           	GOTO	_00129_DS_
                                           _00132_DS_
                                           ;	.line	30; "MC32F7361.c"	}
                                           	RETURN	
                                           ; exit point of _delay_10us
                                           
                                           ;***
                                           ;  pBlock Stats: dbName = C
                                           ;***
                                           ;entry:  _EEPROM_Read_Byte	;Function start
                                           ; 2 exit points
                                           ;has an exit
                                           ;5 compiler assigned registers:
                                           ;   r0x1016
                                           ;   r0x1017
                                           ;   r0x1018
                                           ;   r0x1019
                                           ;   STK00
                                           ;; Starting pCode block
                                           _EEPROM_Read_Byte	;Function start
                                           ; 2 exit points
                                           ;	.line	227; "user.h"	uint16_t EEPROM_Read_Byte(u8 addr)
                                           	MOVRA	_EEAR
                                           ;	.line	231; "user.h"	EECR = 0x02; // Ćô¶Ż EE ¶Á˛Ů×÷
                                           	MOVAI	0x02
                                           	MOVRA	_EECR
                                           ;	.line	232; "user.h"	Nop();
                                           	nop	
                                           ;	.line	233; "user.h"	Nop();
                                           	nop	
                                           _00121_DS_
                                           ;	.line	234; "user.h"	while (EEREAD) // Ľě˛é EE Đ´˛Ů×÷ĘÇ·ńÍęłÉ
                                           	JBCLR	_EECRbits,1
                                           	GOTO	_00121_DS_
                                           ;	.line	238; "user.h"	EEDR = (EEDRH << 8) | EEDRL;
                                           	MOVAR	_EEDRH
                                           	MOVRA	r0x1018
                                           	MOVRA	r0x1016
                                           	CLRR	r0x1017
                                           ;;100	MOVAR	r0x1016
                                           	CLRR	r0x1019
                                           	MOVAR	_EEDRL
                                           	MOVRA	r0x1016
                                           	CLRR	r0x1017
                                           	MOVAR	r0x1016
                                           	ORRA	r0x1019
                                           	MOVAI	0x00
                                           	ORRA	r0x1018
                                           ;	.line	239; "user.h"	return EEDR;
                                           	MOVAR	r0x1019
                                           	MOVRA	STK00
                                           	MOVAR	r0x1018
                                           ;	.line	240; "user.h"	}
                                           	RETURN	
                                           ; exit point of _EEPROM_Read_Byte
                                           
                                           ;***
                                           ;  pBlock Stats: dbName = C
                                           ;***
                                           ;entry:  _EEPROM_Write_Byte	;Function start
                                           ; 2 exit points
                                           ;has an exit
                                           ;6 compiler assigned registers:
                                           ;   STK00
                                           ;   r0x1016
                                           ;   STK01
                                           ;   r0x1017
                                           ;   r0x1018
                                           ;   r0x1019
                                           ;; Starting pCode block
                                           _EEPROM_Write_Byte	;Function start
                                           ; 2 exit points
                                           ;	.line	203; "user.h"	void EEPROM_Write_Byte(uint8_t addr, uint16_t data)
                                           	MOVRA	_EEAR
                                           	MOVAR	STK00
                                           	MOVRA	r0x1018
                                           ;;1	MOVRA	r0x1016
                                           	MOVAR	STK01
                                           	MOVRA	r0x1017
                                           ;	.line	205; "user.h"	HFEN = 1;
                                           	BSET	_OSCMRbits,0
                                           ;;99	MOVAR	r0x1016
                                           ;;1	CLRR	r0x1019
                                           ;	.line	207; "user.h"	EEDRH = (data >> 8) & 0xff;
                                           	MOVAR	r0x1018
                                           	MOVRA	_EEDRH
                                           ;	.line	208; "user.h"	EEDRL = data & 0xff;
                                           	MOVAR	r0x1017
                                           	MOVRA	_EEDRL
                                           ;	.line	209; "user.h"	GIE = 0;
                                           	BCLR	_MCRbits,7
                                           ;	.line	210; "user.h"	EEPR = 0x5A;
                                           	MOVAI	0x5a
                                           	MOVRA	_EEPR
                                           ;	.line	211; "user.h"	EEPR = 0xA5; // ˝âłý±Ł»¤
                                           	MOVAI	0xa5
                                           	MOVRA	_EEPR
                                           ;	.line	212; "user.h"	EECR = 0x01; // Ćô¶ŻEEPROM¶ÁĐ´  Đ´ĘýľÝ˛Ů×÷
                                           	MOVAI	0x01
                                           	MOVRA	_EECR
                                           ;	.line	213; "user.h"	Nop();
                                           	nop	
                                           ;	.line	214; "user.h"	Nop();
                                           	nop	
                                           _00116_DS_
                                           ;	.line	215; "user.h"	while (EEWRITE) // Ľě˛é EE Đ´˛Ů×÷ĘÇ·ńÍęłÉ
                                           	JBCLR	_EECRbits,0
                                           	GOTO	_00116_DS_
                                           ;	.line	219; "user.h"	GIE = 1;
                                           	BSET	_MCRbits,7
                                           ;	.line	220; "user.h"	}
                                           	RETURN	
                                           ; exit point of _EEPROM_Write_Byte
                                           
                                           ;***
                                           ;  pBlock Stats: dbName = C
                                           ;***
                                           ;entry:  _delay_ms	;Function start
                                           ; 2 exit points
                                           ;has an exit
                                           ;7 compiler assigned registers:
                                           ;   r0x1016
                                           ;   STK00
                                           ;   r0x1017
                                           ;   r0x1018
                                           ;   r0x1019
                                           ;   r0x101A
                                           ;   r0x101B
                                           ;; Starting pCode block
                                           _delay_ms	;Function start
                                           ; 2 exit points
                                           ;	.line	180; "user.h"	void delay_ms(u16 xms)
                                           	MOVRA	r0x1016
                                           	MOVAR	STK00
                                           	MOVRA	r0x1017
                                           _00108_DS_
                                           ;	.line	182; "user.h"	while (xms)
                                           	MOVAR	r0x1017
                                           	ORAR	r0x1016
                                           	JBCLR	PFLAG,2
                                           	GOTO	_00111_DS_
                                           ;	.line	185; "user.h"	while (i--)
                                           	MOVAI	0x05
                                           	MOVRA	r0x1018
                                           	MOVAI	0x02
                                           	MOVRA	r0x1019
                                           _00105_DS_
                                           	MOVAR	r0x1018
                                           	MOVRA	r0x101A
                                           	MOVAR	r0x1019
                                           	MOVRA	r0x101B
                                           	MOVAI	0xff
                                           	ADDRA	r0x1018
                                           	JBSET	PFLAG,0
                                           	DECR	r0x1019
                                           	MOVAR	r0x101A
                                           	ORAR	r0x101B
                                           	JBCLR	PFLAG,2
                                           	GOTO	_00107_DS_
                                           ;	.line	187; "user.h"	Nop();
                                           	nop	
                                           	GOTO	_00105_DS_
                                           _00107_DS_
                                           ;	.line	189; "user.h"	xms--; // °Ń --˛Ů×÷·ĹÔÚwhile()ĹĐ¶ĎĚőĽţÍâĂćŁ¬¸ü˝ÚĘˇżŐĽä
                                           	MOVAI	0xff
                                           	ADDRA	r0x1017
                                           	JBSET	PFLAG,0
                                           	DECR	r0x1016
                                           ;	.line	193; "user.h"	__endasm;
                                           	;
                                           	clrwdt;
                                           	
                                           	GOTO	_00108_DS_
                                           _00111_DS_
                                           ;	.line	195; "user.h"	}
                                           	RETURN	
                                           ; exit point of _delay_ms
                                           
                                           
                                           ;	code size estimation:
                                           ;	  879+    0 =   879 instructions ( 1758 byte)
                                           
                                           	end


MEMORY USAGE MAP ('X' = Used,  '-' = Unused)

0000 : XX-------------- XXXXXXXXXXXXXXXX XXXXXXXXXXXXXXXX XXXXXXXXXXXXXXXX
0040 : XXXXXXXXXXXXXXXX XXXXXXXXXXXXXXXX XXXXXXXXXXXXXXXX XXXXXXXXXXXXXXXX
0080 : XXXXXXXXXXXXXXXX XXXXXXXXXXXXXXXX XXXXXXXXXXXXXXXX XXXXXXXXXXXXXXXX
00C0 : XXXXXXXXXXXXXXXX XXXXXXXXXXXXXXXX XXXXXXXXXXXXXXXX XXXXXXXXXXXXXXXX
0100 : XXXXXXXXXXXXXXXX XXXXXXXXXXXXXXXX XXXXXXXXXXXXXXXX XXXXXXXXXXXXXXXX
0140 : XXXXXXXXXXXXXXXX XXXXXXXXXXXXXXXX XXXXXXXXXXXXXXXX XXXXXXXXXXXXXXXX
0180 : XXXXXXXXXXXXXXXX XXXXXXXXXXXXXXXX XXXXXXXXXXXXXXXX XXXXXXXXXXXXXXXX
01C0 : XXXXXXXXXXXXXXXX XXXXXXXXXXXXXXXX XXXXXXXXXXXXXXXX XXXXXXXXXXXXXXXX
0200 : XXXXXXXXXXXXXXXX XXXXXXXXXXXXXXXX XXXXXXXXXXXXXXXX XXXXXXXXXXXXXXXX
0240 : XXXXXXXXXXXXXXXX XXXXXXXXXXXXXXXX XXXXXXXXXXXXXXXX XXXXXXXXXXXXXXXX
0280 : XXXXXXXXXXXXXXXX XXXXXXXXXXXXXXXX XXXXXXXXXXXXXXXX XXXXXXXXXXXXXXXX
02C0 : XXXXXXXXXXXXXXXX XXXXXXXXXXXXXXXX XXXXXXXXXXXXXXXX XXXXXXXXXXXXXXXX
0300 : XXXXXXXXXXXXXXXX XXXXXXXXXXXXXXXX XXXXXXXXXXXXXXXX XXXXXXXXXXXXXXXX
0340 : XXXXXXXXXXXXXXXX XXXXXXXXXXXXXXXX XXXXXXXXXXXXXXXX XXXXXXXXXXXXXXXX
0380 : XXXXXXXXXXXXXXXX XXXXXXXXXXXXXXXX XXXXXXXXXXXXXXXX XXXXXXXXXXXXXXXX
03C0 : XXXXXXXXXXXXXXXX XXXXXXXXXXXXXXXX XXXXXXXXXXXXXXXX XXXXXXXXXXXXXXXX
0400 : XXXXXXXXXXXXXXXX XXXXXXXXXXXXXXXX XXXXXXXXXXXXXXXX XXXXXXXXXXXXXXXX
0440 : XXXXXXXXXXXXXXXX XXXXXXXXXXXXXXXX XXXXXXXXXXXXXXXX XXXXXXXXXXXXXXXX
0480 : XXXXXXXXXXXXXXXX XXXXXXXXXXXXXXXX XXXXXXXXXXXXXXXX XXXXXXXXXXXXXXXX
04C0 : XXXXXXXXXXXXXXXX XXXXXXXXXXXXXXXX XXXXXXXXXXXXXXXX XXXXXXXXXXXXXXXX
0500 : XXXXXXXXXXXXXXXX XXXXXXXXXXXXXXXX XXXXXXXXXXXXXXXX XXXXXXXXXXXXXXXX
0540 : XXXXXXXXXXXXXXXX XXXXXXXXXXXXXXXX XXXXXXXXXXXXXXXX XXXXXXXXXXXXXXXX
0580 : XXXXXXXXXXXXXXXX XXXXXXXXXXXXXXXX XXXXXXXXXXXXXXXX XXXXXXXXXXXXXXXX
05C0 : XXXXXXXXXXXXXXXX XXXXXXXXXXXXXXXX XXXXXXXXXXXXXXXX XXXXXXXXXXXXXXXX
0600 : XXXXXXXXXXXXXXXX XXXXXXXXXXXXXXXX XXXXXXXXXXXXXXXX XXXXXXXXXXXXXXXX
0640 : XXXXXXXXXXXXXXXX XXXXXXXXXXXXXXXX XXXXXXXXXXXXXXXX XXXXXXXXXXXXXXXX
0680 : XXXXXXXXXXXXXXXX XXXXXXXXXXXXXXXX XXXXXXXXXXXXXXXX XXXXXXXXXXXXXXXX
06C0 : XXXXXXXXXXXXXXXX XXXXXXXXXXXXXXXX XXXXXXXXXXXXXXXX XXXXXXXXXXXXXXXX
0700 : XXXXXXXXXX------ ---------------- ---------------- ----------------

All other memory blocks unused.

Program Memory Words Used:   894

